0000000000035eac s GCC_except_table0
0000000000036078 s GCC_except_table0
0000000000036e80 s GCC_except_table0
0000000000037114 s GCC_except_table0
0000000000035c78 s GCC_except_table1
0000000000035fec s GCC_except_table1
0000000000037168 s GCC_except_table1
0000000000036038 s GCC_except_table10
00000000000360e4 s GCC_except_table10
0000000000036cf8 s GCC_except_table101
0000000000036d24 s GCC_except_table102
0000000000036d50 s GCC_except_table104
0000000000037e7c s GCC_except_table105
0000000000036d7c s GCC_except_table108
0000000000036da8 s GCC_except_table109
0000000000036058 s GCC_except_table11
00000000000361b0 s GCC_except_table11
0000000000036ed8 s GCC_except_table11
0000000000036dfc s GCC_except_table111
0000000000036e28 s GCC_except_table117
0000000000036e54 s GCC_except_table118
00000000000361dc s GCC_except_table12
0000000000037e9c s GCC_except_table127
0000000000037ec8 s GCC_except_table129
0000000000036268 s GCC_except_table13
0000000000036f04 s GCC_except_table14
0000000000037ef4 s GCC_except_table140
0000000000037f20 s GCC_except_table148
0000000000037520 s GCC_except_table15
0000000000037f4c s GCC_except_table151
0000000000037f78 s GCC_except_table154
00000000000362c8 s GCC_except_table16
0000000000036f30 s GCC_except_table16
000000000003754c s GCC_except_table16
0000000000036354 s GCC_except_table17
0000000000037fa4 s GCC_except_table171
0000000000036380 s GCC_except_table19
0000000000037588 s GCC_except_table19
0000000000035cf4 s GCC_except_table2
0000000000036f5c s GCC_except_table20
00000000000375d0 s GCC_except_table20
00000000000363c8 s GCC_except_table21
0000000000036fb0 s GCC_except_table21
0000000000036fec s GCC_except_table22
000000000003646c s GCC_except_table23
00000000000365c8 s GCC_except_table24
0000000000037018 s GCC_except_table24
0000000000037760 s GCC_except_table25
0000000000037044 s GCC_except_table26
0000000000037780 s GCC_except_table26
0000000000037070 s GCC_except_table27
00000000000377d4 s GCC_except_table28
0000000000036eac s GCC_except_table3
00000000000371bc s GCC_except_table3
00000000000365f4 s GCC_except_table31
00000000000372f0 s GCC_except_table32
0000000000036670 s GCC_except_table33
000000000003709c s GCC_except_table33
000000000003669c s GCC_except_table34
0000000000036718 s GCC_except_table35
000000000003781c s GCC_except_table36
000000000003795c s GCC_except_table37
0000000000036730 s GCC_except_table40
0000000000036778 s GCC_except_table41
00000000000370bc s GCC_except_table43
00000000000367a4 s GCC_except_table44
00000000000370e8 s GCC_except_table45
00000000000379a4 s GCC_except_table45
0000000000035e40 s GCC_except_table5
00000000000374d4 s GCC_except_table5
0000000000036868 s GCC_except_table52
0000000000036894 s GCC_except_table55
00000000000368c0 s GCC_except_table57
00000000000373fc s GCC_except_table58
0000000000036018 s GCC_except_table6
00000000000374f4 s GCC_except_table6
00000000000368d8 s GCC_except_table62
0000000000036904 s GCC_except_table64
0000000000037450 s GCC_except_table65
0000000000036930 s GCC_except_table67
00000000000369e0 s GCC_except_table68
0000000000036a00 s GCC_except_table70
0000000000036a3c s GCC_except_table71
000000000003748c s GCC_except_table72
0000000000037a88 s GCC_except_table72
0000000000036a5c s GCC_except_table73
0000000000036a7c s GCC_except_table75
0000000000036ab8 s GCC_except_table76
0000000000036ae4 s GCC_except_table77
0000000000037ac4 s GCC_except_table77
0000000000037b74 s GCC_except_table79
0000000000035e60 s GCC_except_table8
0000000000037c24 s GCC_except_table80
0000000000036b10 s GCC_except_table81
0000000000037ca0 s GCC_except_table81
0000000000037d1c s GCC_except_table82
0000000000036b4c s GCC_except_table83
0000000000036b78 s GCC_except_table84
0000000000036b98 s GCC_except_table86
0000000000036bc4 s GCC_except_table88
0000000000036c54 s GCC_except_table89
0000000000035e8c s GCC_except_table9
0000000000036090 s GCC_except_table9
0000000000036c80 s GCC_except_table90
0000000000036cac s GCC_except_table91
0000000000036cd8 s GCC_except_table95
0000000000037dcc s GCC_except_table96
                 U _CFBinaryHeapAddValue
                 U _CFBinaryHeapContainsValue
                 U _CFBinaryHeapCreate
                 U _CFBinaryHeapGetCount
                 U _CFBinaryHeapGetMinimum
                 U _CFBinaryHeapRemoveMinimumValue
                 U _CFRelease
                 U _CFStringGetBytes
                 U _CFStringGetLength
                 U __Unwind_Resume
000000000001bec0 t __Z14approximate_HgiRK3VecPS0_S2_PKd
0000000000011d8d t __Z5prunePvPN3nlp15_TrieCompletionEPb
0000000000039b60 s __ZGVZN3nlpL12sharedBufferEvE6buffer
0000000000039b90 s __ZGVZN3nlpL12sharedBufferEvE6buffer$tlv$init
0000000000039b98 b __ZL12max_line_len
0000000000023f1d t __ZL13svm_train_onePK11svm_problemPK13svm_parameterdd
0000000000039580 s __ZL14svm_type_table
0000000000039b40 d __ZL16svm_print_string
00000000000395b0 s __ZL17kernel_type_table
00000000000248a4 t __ZL17svm_group_classesPK11svm_problemPiPS2_S3_S3_S2_
0000000000026f19 t __ZL19print_string_stdoutPKc
000000000002127f t __ZL4infoPKcz
0000000000039ba0 b __ZL4line
0000000000026a35 t __ZL8readlineP7__sFILE
00000000000272a4 t __ZN11ONE_CLASS_QC2ERK11svm_problemRK13svm_parameter
00000000000274d6 t __ZN11ONE_CLASS_QD0Ev
000000000002729a t __ZN11ONE_CLASS_QD1Ev
00000000000274f2 t __ZN11ONE_CLASS_QD2Ev
0000000000012724 t __ZN18ME_Efficient_Model14load_from_fileERKNSt3__112basic_stringIcNS0_11char_traitsIcEENS0_9allocatorIcEEEEb
00000000000129b6 t __ZN18ME_Efficient_Model15load_with_bytesEPKc
0000000000012566 t __ZN18ME_Efficient_ModelD1Ev
0000000000012508 t __ZN18ME_Efficient_ModelD2Ev
00000000000133b8 t __ZN26ME_Efficient_Model_Trainer10ME_FeatureC2Eii
000000000000faaa t __ZN26ME_Efficient_Model_Trainer11perform_GISEi
000000000000ba20 t __ZN26ME_Efficient_Model_Trainer11perform_SGDEv
0000000000010968 t __ZN26ME_Efficient_Model_Trainer13ME_FeatureBag3PutERKNS_10ME_FeatureE
000000000000f59e t __ZN26ME_Efficient_Model_Trainer13ME_FeatureBagD1Ev
000000000001c3fa t __ZN26ME_Efficient_Model_Trainer13perform_LBFGSERKNSt3__16vectorIdNS0_9allocatorIdEEEE
0000000000005b36 t __ZN26ME_Efficient_Model_Trainer13perform_OWLQNERKNSt3__16vectorIdNS0_9allocatorIdEEEEd
000000000000f606 t __ZN26ME_Efficient_Model_Trainer16FunctionGradientERKNSt3__16vectorIdNS0_9allocatorIdEEEERS4_
00000000000109e0 t __ZN26ME_Efficient_Model_Trainer16init_feature2mefEv
0000000000010534 t __ZN26ME_Efficient_Model_Trainer16make_feature_bagEi
000000000000fe94 t __ZN26ME_Efficient_Model_Trainer18heldout_likelihoodEv
0000000000010b98 t __ZN26ME_Efficient_Model_Trainer19add_training_sampleERK9ME_Sample
000000000000ffe8 t __ZN26ME_Efficient_Model_Trainer20perform_QUASI_NEWTONEv
00000000000056a6 t __ZN26ME_Efficient_Model_Trainer21regularized_func_gradEdRK3VecRS0_
000000000000570e t __ZN26ME_Efficient_Model_Trainer23constrained_line_searchEdRK3VecS2_dS2_RS0_S3_
000000000001bc8c t __ZN26ME_Efficient_Model_Trainer24backtracking_line_searchERK3VecS2_dS2_RS0_S3_
000000000000f754 t __ZN26ME_Efficient_Model_Trainer24update_model_expectationEv
0000000000011bea t __ZN26ME_Efficient_Model_Trainer5clearEv
0000000000010f82 t __ZN26ME_Efficient_Model_Trainer5trainEv
0000000000010f06 t __ZN26ME_Efficient_Model_Trainer9StringBag3PutERKNSt3__112basic_stringIcNS1_11char_traitsIcEENS1_9allocatorIcEEEE
0000000000011d40 t __ZN26ME_Efficient_Model_Trainer9StringBag5ClearEv
000000000000f5c8 t __ZN26ME_Efficient_Model_Trainer9StringBagD1Ev
0000000000014552 t __ZN26ME_Efficient_Model_TrainerC2ERKS_
000000000001a2f6 t __ZN26ME_Efficient_Model_TrainerC2Ev
000000000000f5fc t __ZN26ME_Efficient_Model_TrainerD1Ev
000000000000f420 t __ZN26ME_Efficient_Model_TrainerD2Ev
000000000000677e t __ZN3VecC2Emd
000000000001c37a t __ZN3VecpLERKS_
000000000002792a t __ZN3nlp12BurstTrieAddEPNS_10_BurstTrieEPKhjj
000000000002865a t __ZN3nlp15BurstTrieRemoveEPNS_10_BurstTrieEPKhj
00000000000281bc t __ZN3nlp15BurstTrieRetainEPKNS_10_BurstTrieE
000000000002805a t __ZN3nlp15BurstTrieSearchEPKNS_10_BurstTrieEPKhjPvNSt3__18functionIFvS5_PNS_15_TrieCompletionEPbEEEi
00000000000296b7 t __ZN3nlp15equalMapCursorsEPKNS_9MapCursorES2_
0000000000027e60 t __ZN3nlp16BurstTrieReleaseEPKNS_10_BurstTrieE
0000000000027904 t __ZN3nlp16traverseCallbackEPvPNS_15_TrieCompletionEPb
000000000002918f t __ZN3nlp17BurstTrieContainsEPKNS_10_BurstTrieEPKhjPjPf
0000000000027ed5 t __ZN3nlp17BurstTrieGetCountEPKNS_10_BurstTrieE
000000000002a6b3 t __ZN3nlp17SetMapCursorScoreIPNS_10_TrieLevelEEEvRNS_9MapCursorET_
00000000000296f9 t __ZN3nlp17enumerateListNodeIPNS_9_ListNodeEEEvT_PhjRbPvNSt3__18functionIFvS6_PKhjjfPbEEE
00000000000296d7 t __ZN3nlp19getMapCursorPayloadEPKNS_10_BurstTrieEPKNS_9MapCursorEPj
000000000002c180 t __ZN3nlp20BurstTrieWriteToFileEPNS_10_BurstTrieEPK10__CFString
000000000002913e t __ZN3nlp20TrieCompletionRetainEPNS_15_TrieCompletionE
0000000000027a98 t __ZN3nlp21BurstTrieAddWithScoreEPNS_10_BurstTrieEPKhjjfPvNSt3__18functionIFfS4_ffEEE
000000000002bc12 t __ZN3nlp21BurstTrieRankedSearchEPKNS_10_BurstTrieEPKhjiP14__CFBinaryHeapS6_
0000000000029160 t __ZN3nlp21TrieCompletionReleaseEPNS_15_TrieCompletionE
000000000002b52c t __ZN3nlp21TrieCursorQueueCreateEv
0000000000027bef t __ZN3nlp22BurstTrieCreateMutableEv
000000000002b4ab t __ZN3nlp22BurstTrieCursorIsEqualEPNS_16_BurstTrieCursorES1_
00000000000296a6 t __ZN3nlp22BurstTrieCursorReleaseEPNS_16_BurstTrieCursorE
0000000000027bdb t __ZN3nlp22TrieCompletionGetScoreEPNS_15_TrieCompletionE
000000000002b5ef t __ZN3nlp22TrieCursorQueueReleaseEP14__CFBinaryHeap
000000000002979d t __ZN3nlp22equalCompactMapCursorsEPKNS_17_CompactMapCursorES2_
00000000000279e2 t __ZN3nlp22rankedTraverseCallbackEPvPNS_15_TrieCompletionEPb
0000000000027c97 t __ZN3nlp23BurstTrieCreateFromFileEPK10__CFString
00000000000279be t __ZN3nlp23TrieCompletionGetLengthEPNS_15_TrieCompletionE
0000000000027ec9 t __ZN3nlp24BurstTrieCreateWithBytesEPKc
00000000000279d0 t __ZN3nlp24TrieCompletionGetPayloadEPNS_15_TrieCompletionE
000000000002b430 t __ZN3nlp25BurstTrieCursorCreateCopyEPNS_16_BurstTrieCursorE
000000000002b4fe t __ZN3nlp25BurstTrieCursorGetPayloadEPNS_16_BurstTrieCursorEPj
000000000002b600 t __ZN3nlp25TrieCompletionQueueCreateEv
0000000000027eea t __ZN3nlp26BurstTrieCreateMutableCopyEPKNS_10_BurstTrieE
000000000002b69c t __ZN3nlp26TrieCompletionQueueReleaseEP14__CFBinaryHeap
00000000000297c3 t __ZN3nlp26getCompactMapCursorPayloadEPKNS_10_BurstTrieEPKNS_17_CompactMapCursorEPj
000000000002a54c t __ZN3nlp27BurstTrieSetCursorWithBytesEPKNS_10_BurstTrieEPNS_16_BurstTrieCursorEPKhj
000000000002951f t __ZN3nlp27BurstTrieTraverseFromCursorEPNS_16_BurstTrieCursorEPvNSt3__18functionIFvS2_PKhjjfPbEEEi
00000000000279ad t __ZN3nlp27TrieCompletionGetCompletionEPNS_15_TrieCompletionE
00000000000297e5 t __ZN3nlp28traverseFromCompactMapCursorEPKNS_10_BurstTrieEPNS_17_CompactMapCursorEPhjjPbPvNSt3__18functionIFvS7_PKhjjfS6_EEE
000000000002bc3b t __ZN3nlp29BurstTrieContinueRankedSearchEPKNS_10_BurstTrieEiP14__CFBinaryHeapS4_
00000000000294c9 t __ZN3nlp30BurstTrieCreateCursorWithBytesEPKNS_10_BurstTrieEPKhj
000000000002bf90 t __ZN3nlp30BurstTrieWriteToFileDescriptorEPNS_10_BurstTrieEiPi
000000000002a60d t __ZN3nlp31BurstTrieCursorAdvanceWithBytesEPNS_16_BurstTrieCursorEPKhj
0000000000027c41 t __ZN3nlp33BurstTrieCreateMutableWithOptionsEjNS_16BurstTrieOptionsE
000000000002b6ad t __ZN3nlp34BurstTrieRankedSearchWithSelectionEPKNS_10_BurstTrieEPNS_13_TrieSelectorEPKhjiP14__CFBinaryHeapS8_
0000000000031f13 t __ZN3nlp37burstTrieCreateCursorWithTrieLevelRefIPNS_10_TrieLevelEEEPNS_16_BurstTrieCursorEPKNS_10_BurstTrieET_
0000000000031765 t __ZN3nlp37burstTrieCreateCursorWithTrieLevelRefIPNS_16_RankedTrieLevelEEEPNS_16_BurstTrieCursorEPKNS_10_BurstTrieET_
000000000002c4a9 t __ZN3nlpL10burstLevelEPNS_10_BurstTrieEPNS_9_ListNodeERNS_16BurstTrieAddCodeE
000000000002f7bf t __ZN3nlpL10searchListEPKNS_10_BurstTrieEPNS_9_ListNodeEPhjjbPvNSt3__18functionIFvS6_PNS_15_TrieCompletionEbPbEEE
000000000002c334 t __ZN3nlpL11addListNodeEPNS_10_BurstTrieEPPNS_9_ListNodeEPKhjjjRNS_16BurstTrieAddCodeE
000000000002d1d7 t __ZN3nlpL11containsKeyEPvPNS_15_TrieCompletionEbPb
000000000002c2cf t __ZN3nlpL11finishLevelIPNS_10_TrieLevelEPNS_9_ListNodeEEEvT_
000000000002c26a t __ZN3nlpL11finishLevelIPNS_16_RankedTrieLevelEPNS_15_RankedListNodeEEEvT_
000000000002db47 t __ZN3nlpL11searchLevelEPKNS_10_BurstTrieEPNS_10_TrieLevelEPhjjbPvNSt3__18functionIFvS6_PNS_15_TrieCompletionEbPbEEE
000000000002ada3 t __ZN3nlpL12sharedBufferEv
0000000000028307 t __ZN3nlpL14addLevelRankedEPNS_10_BurstTrieEPNS_16_RankedTrieLevelEPKhjjjfPfRNS_16BurstTrieAddCodeEPvNSt3__18functionIFfS9_ffEEE
0000000000030a8a t __ZN3nlpL14rankSearchListEPKNS_10_BurstTrieEPNS_15_RankedListNodeEPKhjjP14__CFBinaryHeapS8_iPNS_13_TrieSelectorE
000000000002f0ed t __ZN3nlpL14searchDiskPageEPKNS_10_BurstTrieEPNS_5_PageEPhjjbPvNSt3__18functionIFvS6_PNS_15_TrieCompletionEbPbEEE
0000000000030e2e t __ZN3nlpL14serializeListsEPKNS_10_BurstTrieEPNS_10_TrieLevelExi
000000000002ba47 t __ZN3nlpL15rankSearchLevelEPKNS_10_BurstTrieEPNS_16_RankedTrieLevelEPKhjjP14__CFBinaryHeapS8_iPNS_13_TrieSelectorE
000000000002d23d t __ZN3nlpL15searchDiskLevelEPKNS_10_BurstTrieEPNS_14_DiskTrieLevelEPhjjbPvNSt3__18functionIFvS6_PNS_15_TrieCompletionEbPbEEE
0000000000031370 t __ZN3nlpL15serializeLevelsEPKNS_10_BurstTrieEPNS_10_TrieLevelExibbPj
000000000002b572 t __ZN3nlpL16TrieCursorRetainEPK13__CFAllocatorPKv
000000000002aceb t __ZN3nlpL16advanceMapCursorEPKNS_10_BurstTrieEPNS_9MapCursorEPKhj
000000000002c851 t __ZN3nlpL16burstLevelRankedEPNS_10_BurstTrieEPNS_15_RankedListNodeEPfRNS_16BurstTrieAddCodeE
000000000002cb9b t __ZN3nlpL16nodeScoreCompareEPKvS1_
000000000002f640 t __ZN3nlpL16searchListRankedEPKNS_10_BurstTrieEPNS_15_RankedListNodeEPhjjbPvNSt3__18functionIFvS6_PNS_15_TrieCompletionEbPbEEE
000000000002b59c t __ZN3nlpL17TrieCursorCompareEPKvS1_Pv
000000000002b583 t __ZN3nlpL17TrieCursorReleaseEPK13__CFAllocatorPKv
000000000002c61d t __ZN3nlpL17addListNodeRankedEPNS_10_BurstTrieEPPNS_15_RankedListNodeEPKhjjjfPfRNS_16BurstTrieAddCodeEPvNSt3__18functionIFfSA_ffEEE
000000000002c5e9 t __ZN3nlpL17nodeStringCompareEPKvS1_
000000000002bd27 t __ZN3nlpL17rankSearchCursorsEPKNS_10_BurstTrieEP14__CFBinaryHeapS4_iPNS_13_TrieSelectorE
000000000002d75c t __ZN3nlpL17searchLevelRankedEPKNS_10_BurstTrieEPNS_16_RankedTrieLevelEPhjjbPvNSt3__18functionIFvS6_PNS_15_TrieCompletionEbPbEEE
0000000000029270 t __ZN3nlpL17searchWithContextEPKNS_10_BurstTrieEPKhjbPNS_14_SearchContextE
000000000003070f t __ZN3nlpL17updateCompletionsEPNS_15_TrieCompletionEPNS_13_TrieSelectorEP14__CFBinaryHeapS5_j
000000000002a59a t __ZN3nlpL18burstTrieSetCursorEPKNS_10_BurstTrieEPNS_16_BurstTrieCursorE
0000000000030219 t __ZN3nlpL18rankSearchDiskPageEPKNS_10_BurstTrieEPNS_11_RankedPageEPKhjjP14__CFBinaryHeapS8_iPNS_13_TrieSelectorE
000000000002b849 t __ZN3nlpL19rankSearchDiskLevelEPKNS_10_BurstTrieEPNS_20_RankedDiskTrieLevelEPKhjjP14__CFBinaryHeapS8_iPNS_13_TrieSelectorE
0000000000030979 t __ZN3nlpL19rankSearchGetCursorEPKNS_10_BurstTrieEmPhjP14__CFBinaryHeap
000000000002e65f t __ZN3nlpL20searchDiskPageRankedEPKNS_10_BurstTrieEPNS_11_RankedPageEPhjjbPvNSt3__18functionIFvS6_PNS_15_TrieCompletionEbPbEEE
0000000000030bec t __ZN3nlpL20serializeListsRankedEPKNS_10_BurstTrieEPNS_16_RankedTrieLevelExi
000000000002914f t __ZN3nlpL20trieCompletionRetainEPK13__CFAllocatorPKv
000000000002cc04 t __ZN3nlpL21searchDiskLevelRankedEPKNS_10_BurstTrieEPNS_20_RankedDiskTrieLevelEPhjjbPvNSt3__18functionIFvS6_PNS_15_TrieCompletionEbPbEEE
000000000003112f t __ZN3nlpL21serializeLevelsRankedEPKNS_10_BurstTrieEPNS_16_RankedTrieLevelExibbPj
000000000002ae08 t __ZN3nlpL21traverseFromMapCursorEPKNS_10_BurstTrieERNS_9MapCursorEPhjRbiPvNSt3__18functionIFvS7_PKhjjfPbEEE
0000000000029176 t __ZN3nlpL21trieCompletionReleaseEPK13__CFAllocatorPKv
000000000002e9a9 t __ZN3nlpL22searchCompactDiskLevelEPKNS_10_BurstTrieEPNS_21_CompactDiskTrieLevelEPhjjbPvNSt3__18functionIFvS6_PNS_15_TrieCompletionEbPbEEE
000000000002fd0e t __ZN3nlpL22updateMapCursorPointerEPKNS_10_BurstTrieERNS_9MapCursorEm
000000000002a6b9 t __ZN3nlpL23advanceCompactMapCursorEPKNS_10_BurstTrieEPNS_17_CompactMapCursorEPKhj
000000000002faa7 t __ZN3nlpL24advanceMapCursorTrieListEPKNS_10_BurstTrieEPNS_9MapCursorEPKhj
0000000000027dc2 t __ZN3nlpL24burstTrieCreateWithBytesEPKcb
000000000002fe47 t __ZN3nlpL26rankSearchCompactDiskLevelEPKNS_10_BurstTrieEPNS_27_RankedCompactDiskTrieLevelEPKhjjP14__CFBinaryHeapS8_iPNS_13_TrieSelectorE
000000000002b646 t __ZN3nlpL26trieCompletionCompareScoreEPKvS1_Pv
000000000002df26 t __ZN3nlpL28searchCompactDiskLevelRankedEPKNS_10_BurstTrieEPNS_27_RankedCompactDiskTrieLevelEPhjjbPvNSt3__18functionIFvS6_PNS_15_TrieCompletionEbPbEEE
000000000002f9d2 t __ZN3nlpL29updateCompactMapCursorPointerEPKNS_10_BurstTrieEPNS_17_CompactMapCursorEm
000000000002f938 t __ZN3nlpL34advanceCompactMapCursorMappedLevelEPKNS_10_BurstTrieEPNS_17_CompactMapCursorEPKhj
000000000002b7f3 t __ZN3nlpL34trieCompletionInternalCompareScoreEPKvS1_Pv
000000000002a1ba t __ZN3nlpL39traverseFromCompactMapCursorMappedLevelEPKNS_10_BurstTrieEPNS_17_CompactMapCursorEPhjjPbPvNSt3__18functionIFvS7_PKhjjfS6_EEE
00000000000281d0 t __ZN3nlpL8addLevelEPNS_10_BurstTrieEPNS_10_TrieLevelEPKhjjjRNS_16BurstTrieAddCodeE
000000000002078a t __ZN5Cache10lru_deleteEPNS_6head_tE
00000000000207a2 t __ZN5Cache10lru_insertEPNS_6head_tE
00000000000208d0 t __ZN5Cache10swap_indexEii
00000000000207c2 t __ZN5Cache8get_dataEiPPfi
00000000000206dc t __ZN5CacheC1Eil
0000000000020674 t __ZN5CacheC2Eil
0000000000020780 t __ZN5CacheD1Ev
0000000000020744 t __ZN5CacheD2Ev
0000000000026fa0 t __ZN5SVC_QC2ERK11svm_problemRK13svm_parameterPKa
0000000000027224 t __ZN5SVC_QD0Ev
0000000000026f96 t __ZN5SVC_QD1Ev
0000000000027240 t __ZN5SVC_QD2Ev
0000000000027548 t __ZN5SVR_QC2ERK11svm_problemRK13svm_parameter
0000000000027864 t __ZN5SVR_QD0Ev
000000000002753e t __ZN5SVR_QD1Ev
0000000000027880 t __ZN5SVR_QD2Ev
0000000000020e4a t __ZN6Kernel10k_functionEPK8svm_nodeS2_RK13svm_parameter
0000000000020dc6 t __ZN6Kernel3dotEPK8svm_nodeS2_
0000000000020a50 t __ZN6KernelC2EiPKP8svm_nodeRK13svm_parameter
0000000000020e44 t __ZN6KernelD0Ev
0000000000020e3e t __ZN6KernelD1Ev
0000000000020e06 t __ZN6KernelD2Ev
0000000000021054 t __ZN6Solver10swap_indexEii
0000000000021f16 t __ZN6Solver12do_shrinkingEv
00000000000220bc t __ZN6Solver13calculate_rhoEv
0000000000021c04 t __ZN6Solver18select_working_setERiS0_
000000000002110e t __ZN6Solver20reconstruct_gradientEv
000000000002134e t __ZN6Solver5SolveEiRK7QMatrixPKdPKaPddddPNS_12SolutionInfoEi
0000000000021ebe t __ZN6Solver9be_shrunkEidd
0000000000026f7c t __ZN6SolverD0Ev
0000000000026f76 t __ZN6SolverD1Ev
0000000000019f66 t __ZN9ME_Sample11add_featureERKNSt3__112basic_stringIcNS0_11char_traitsIcEENS0_9allocatorIcEEEE
000000000001a08e t __ZN9ME_Sample11add_featureERKNSt3__112basic_stringIcNS0_11char_traitsIcEENS0_9allocatorIcEEEEd
000000000001a150 t __ZN9ME_Sample5clearEv
000000000002250a t __ZN9Solver_NU12do_shrinkingEv
00000000000226a8 t __ZN9Solver_NU13calculate_rhoEv
0000000000022166 t __ZN9Solver_NU18select_working_setERiS0_
00000000000224a6 t __ZN9Solver_NU9be_shrunkEidddd
0000000000026f8c t __ZN9Solver_NUD0Ev
0000000000026f86 t __ZN9Solver_NUD1Ev
0000000000027468 t __ZNK11ONE_CLASS_Q10swap_indexEii
00000000000273d2 t __ZNK11ONE_CLASS_Q5get_QEii
000000000002745e t __ZNK11ONE_CLASS_Q6get_QDEv
0000000000012570 t __ZNK18ME_Efficient_Model11num_classesEv
0000000000012658 t __ZNK18ME_Efficient_Model12get_class_idERKNSt3__112basic_stringIcNS0_11char_traitsIcEENS0_9allocatorIcEEEE
000000000001258a t __ZNK18ME_Efficient_Model15get_class_labelEi
0000000000012bfa t __ZNK18ME_Efficient_Model23conditional_probabilityERKNSt3__16vectorIdNS0_9allocatorIdEEEERS4_
0000000000012dea t __ZNK18ME_Efficient_Model8classifyER9ME_SamplePi
0000000000012d54 t __ZNK18ME_Efficient_Model8classifyERKNSt3__16vectorIdNS0_9allocatorIdEEEERS4_
0000000000011a14 t __ZNK26ME_Efficient_Model_Trainer10get_labelsERNSt3__16vectorINS0_12basic_stringIcNS0_11char_traitsIcEENS0_9allocatorIcEEEENS5_IS7_EEEE
0000000000012094 t __ZNK26ME_Efficient_Model_Trainer12save_to_fileERKNSt3__112basic_stringIcNS0_11char_traitsIcEENS0_9allocatorIcEEEEd
000000000000c532 t __ZNK26ME_Efficient_Model_Trainer13ME_FeatureBag7FeatureEi
0000000000011b56 t __ZNK26ME_Efficient_Model_Trainer14get_feature_idEii
0000000000011ba0 t __ZNK26ME_Efficient_Model_Trainer14ignore_featureEid
0000000000011bd4 t __ZNK26ME_Efficient_Model_Trainer18get_feature_weightEi
00000000000101d6 t __ZNK26ME_Efficient_Model_Trainer23conditional_probabilityERKNS_6SampleERNSt3__16vectorIdNS3_9allocatorIdEEEE
00000000000121b2 t __ZNK26ME_Efficient_Model_Trainer23save_to_file_descriptorEid
0000000000019200 t __ZNK26ME_Efficient_Model_Trainer6SampleltERKS0_
00000000000104ac t __ZNK26ME_Efficient_Model_Trainer8classifyERKNS_6SampleERNSt3__16vectorIdNS3_9allocatorIdEEEE
0000000000011af4 t __ZNK26ME_Efficient_Model_Trainer9StringBag3StrEi
00000000000271a0 t __ZNK5SVC_Q10swap_indexEii
00000000000270f0 t __ZNK5SVC_Q5get_QEii
0000000000027196 t __ZNK5SVC_Q6get_QDEv
000000000002781e t __ZNK5SVR_Q10swap_indexEii
0000000000027720 t __ZNK5SVR_Q5get_QEii
0000000000027814 t __ZNK5SVR_Q6get_QDEv
0000000000020ca6 t __ZNK6Kernel10kernel_rbfEii
0000000000026f3c t __ZNK6Kernel10swap_indexEii
0000000000020c14 t __ZNK6Kernel11kernel_polyEii
0000000000020bb8 t __ZNK6Kernel13kernel_linearEii
0000000000020d2e t __ZNK6Kernel14kernel_sigmoidEii
0000000000020d9c t __ZNK6Kernel18kernel_precomputedEii
0000000000019444 t __ZNKSt3__110__function6__funcIPFvPvPN3nlp15_TrieCompletionEPbENS_9allocatorIS8_EES7_E11target_typeEv
0000000000019428 t __ZNKSt3__110__function6__funcIPFvPvPN3nlp15_TrieCompletionEPbENS_9allocatorIS8_EES7_E6targetERKSt9type_info
00000000000193e8 t __ZNKSt3__110__function6__funcIPFvPvPN3nlp15_TrieCompletionEPbENS_9allocatorIS8_EES7_E7__cloneEPNS0_6__baseIS7_EE
00000000000193b8 t __ZNKSt3__110__function6__funcIPFvPvPN3nlp15_TrieCompletionEPbENS_9allocatorIS8_EES7_E7__cloneEv
000000000002e99c t __ZNKSt3__110__function6__funcIPFvPvPN3nlp15_TrieCompletionEbPbENS_9allocatorIS8_EES7_E11target_typeEv
000000000002e980 t __ZNKSt3__110__function6__funcIPFvPvPN3nlp15_TrieCompletionEbPbENS_9allocatorIS8_EES7_E6targetERKSt9type_info
000000000002e94c t __ZNKSt3__110__function6__funcIPFvPvPN3nlp15_TrieCompletionEbPbENS_9allocatorIS8_EES7_E7__cloneEPNS0_6__baseIS7_EE
000000000002e91c t __ZNKSt3__110__function6__funcIPFvPvPN3nlp15_TrieCompletionEbPbENS_9allocatorIS8_EES7_E7__cloneEv
0000000000032344 t __ZNKSt3__110__function6__funcIZN3nlp15BurstTrieSearchEPKNS2_10_BurstTrieEPKhjPvNS_8functionIFvS8_PNS2_15_TrieCompletionEPbEEEiE3$_0NS_9allocatorISF_EEFvS8_S7_jjfSC_EE11target_typeEv
0000000000032328 t __ZNKSt3__110__function6__funcIZN3nlp15BurstTrieSearchEPKNS2_10_BurstTrieEPKhjPvNS_8functionIFvS8_PNS2_15_TrieCompletionEPbEEEiE3$_0NS_9allocatorISF_EEFvS8_S7_jjfSC_EE6targetERKSt9type_info
0000000000032216 t __ZNKSt3__110__function6__funcIZN3nlp15BurstTrieSearchEPKNS2_10_BurstTrieEPKhjPvNS_8functionIFvS8_PNS2_15_TrieCompletionEPbEEEiE3$_0NS_9allocatorISF_EEFvS8_S7_jjfSC_EE7__cloneEPNS0_6__baseISI_EE
00000000000321da t __ZNKSt3__110__function6__funcIZN3nlp15BurstTrieSearchEPKNS2_10_BurstTrieEPKhjPvNS_8functionIFvS8_PNS2_15_TrieCompletionEPbEEEiE3$_0NS_9allocatorISF_EEFvS8_S7_jjfSC_EE7__cloneEv
00000000000321bc t __ZNKSt3__110__function6__funcIZN3nlpL12reverseBurstIPNS2_10_TrieLevelEPNS2_9_ListNodeEEEvPNS2_10_BurstTrieERKNS_6vectorIT_NS_9allocatorISB_EEEEPKhjEUlPvSI_jjfPbE0_NSC_ISL_EEFvSJ_SI_jjfSK_EE11target_typeEv
00000000000321a0 t __ZNKSt3__110__function6__funcIZN3nlpL12reverseBurstIPNS2_10_TrieLevelEPNS2_9_ListNodeEEEvPNS2_10_BurstTrieERKNS_6vectorIT_NS_9allocatorISB_EEEEPKhjEUlPvSI_jjfPbE0_NSC_ISL_EEFvSJ_SI_jjfSK_EE6targetERKSt9type_info
0000000000032056 t __ZNKSt3__110__function6__funcIZN3nlpL12reverseBurstIPNS2_10_TrieLevelEPNS2_9_ListNodeEEEvPNS2_10_BurstTrieERKNS_6vectorIT_NS_9allocatorISB_EEEEPKhjEUlPvSI_jjfPbE0_NSC_ISL_EEFvSJ_SI_jjfSK_EE7__cloneEPNS0_6__baseISN_EE
000000000003202a t __ZNKSt3__110__function6__funcIZN3nlpL12reverseBurstIPNS2_10_TrieLevelEPNS2_9_ListNodeEEEvPNS2_10_BurstTrieERKNS_6vectorIT_NS_9allocatorISB_EEEEPKhjEUlPvSI_jjfPbE0_NSC_ISL_EEFvSJ_SI_jjfSK_EE7__cloneEv
000000000003200c t __ZNKSt3__110__function6__funcIZN3nlpL12reverseBurstIPNS2_10_TrieLevelEPNS2_9_ListNodeEEEvPNS2_10_BurstTrieERKNS_6vectorIT_NS_9allocatorISB_EEEEPKhjEUlPvSI_jjfPbE_NSC_ISL_EEFvSJ_SI_jjfSK_EE11target_typeEv
0000000000031ff0 t __ZNKSt3__110__function6__funcIZN3nlpL12reverseBurstIPNS2_10_TrieLevelEPNS2_9_ListNodeEEEvPNS2_10_BurstTrieERKNS_6vectorIT_NS_9allocatorISB_EEEEPKhjEUlPvSI_jjfPbE_NSC_ISL_EEFvSJ_SI_jjfSK_EE6targetERKSt9type_info
0000000000031fbc t __ZNKSt3__110__function6__funcIZN3nlpL12reverseBurstIPNS2_10_TrieLevelEPNS2_9_ListNodeEEEvPNS2_10_BurstTrieERKNS_6vectorIT_NS_9allocatorISB_EEEEPKhjEUlPvSI_jjfPbE_NSC_ISL_EEFvSJ_SI_jjfSK_EE7__cloneEPNS0_6__baseISN_EE
0000000000031f90 t __ZNKSt3__110__function6__funcIZN3nlpL12reverseBurstIPNS2_10_TrieLevelEPNS2_9_ListNodeEEEvPNS2_10_BurstTrieERKNS_6vectorIT_NS_9allocatorISB_EEEEPKhjEUlPvSI_jjfPbE_NSC_ISL_EEFvSJ_SI_jjfSK_EE7__cloneEv
0000000000031bd0 t __ZNKSt3__110__function6__funcIZN3nlpL12reverseBurstIPNS2_16_RankedTrieLevelEPNS2_15_RankedListNodeEEEvPNS2_10_BurstTrieERKNS_6vectorIT_NS_9allocatorISB_EEEEPKhjEUlPvSI_jjfPbE0_NSC_ISL_EEFvSJ_SI_jjfSK_EE11target_typeEv
0000000000031bb4 t __ZNKSt3__110__function6__funcIZN3nlpL12reverseBurstIPNS2_16_RankedTrieLevelEPNS2_15_RankedListNodeEEEvPNS2_10_BurstTrieERKNS_6vectorIT_NS_9allocatorISB_EEEEPKhjEUlPvSI_jjfPbE0_NSC_ISL_EEFvSJ_SI_jjfSK_EE6targetERKSt9type_info
0000000000031a6a t __ZNKSt3__110__function6__funcIZN3nlpL12reverseBurstIPNS2_16_RankedTrieLevelEPNS2_15_RankedListNodeEEEvPNS2_10_BurstTrieERKNS_6vectorIT_NS_9allocatorISB_EEEEPKhjEUlPvSI_jjfPbE0_NSC_ISL_EEFvSJ_SI_jjfSK_EE7__cloneEPNS0_6__baseISN_EE
0000000000031a3e t __ZNKSt3__110__function6__funcIZN3nlpL12reverseBurstIPNS2_16_RankedTrieLevelEPNS2_15_RankedListNodeEEEvPNS2_10_BurstTrieERKNS_6vectorIT_NS_9allocatorISB_EEEEPKhjEUlPvSI_jjfPbE0_NSC_ISL_EEFvSJ_SI_jjfSK_EE7__cloneEv
00000000000318d6 t __ZNKSt3__110__function6__funcIZN3nlpL12reverseBurstIPNS2_16_RankedTrieLevelEPNS2_15_RankedListNodeEEEvPNS2_10_BurstTrieERKNS_6vectorIT_NS_9allocatorISB_EEEEPKhjEUlPvSI_jjfPbE_NSC_ISL_EEFvSJ_SI_jjfSK_EE11target_typeEv
00000000000318ba t __ZNKSt3__110__function6__funcIZN3nlpL12reverseBurstIPNS2_16_RankedTrieLevelEPNS2_15_RankedListNodeEEEvPNS2_10_BurstTrieERKNS_6vectorIT_NS_9allocatorISB_EEEEPKhjEUlPvSI_jjfPbE_NSC_ISL_EEFvSJ_SI_jjfSK_EE6targetERKSt9type_info
0000000000031886 t __ZNKSt3__110__function6__funcIZN3nlpL12reverseBurstIPNS2_16_RankedTrieLevelEPNS2_15_RankedListNodeEEEvPNS2_10_BurstTrieERKNS_6vectorIT_NS_9allocatorISB_EEEEPKhjEUlPvSI_jjfPbE_NSC_ISL_EEFvSJ_SI_jjfSK_EE7__cloneEPNS0_6__baseISN_EE
000000000003185a t __ZNKSt3__110__function6__funcIZN3nlpL12reverseBurstIPNS2_16_RankedTrieLevelEPNS2_15_RankedListNodeEEEvPNS2_10_BurstTrieERKNS_6vectorIT_NS_9allocatorISB_EEEEPKhjEUlPvSI_jjfPbE_NSC_ISL_EEFvSJ_SI_jjfSK_EE7__cloneEv
0000000000013416 t __ZNKSt3__112__hash_tableINS_17__hash_value_typeIjiEENS_22__unordered_map_hasherIjS2_NS_4hashIjEELb1EEENS_21__unordered_map_equalIjS2_NS_8equal_toIjEELb1EEENS_9allocatorIS2_EEE4findIjEENS_21__hash_const_iteratorIPNS_11__hash_nodeIS2_PvEEEERKT_
                 U __ZNKSt3__120__vector_base_commonILb1EE20__throw_length_errorEv
                 U __ZNKSt3__121__basic_string_commonILb1EE20__throw_length_errorEv
0000000000013b2a t __ZNKSt3__14hashINS_12basic_stringIcNS_11char_traitsIcEENS_9allocatorIcEEEEEclERKS6_
                 U __ZNKSt3__16locale9use_facetERNS0_2idE
000000000002cb36 t __ZNKSt3__18functionIFfPvffEEclES1_ff
000000000002971e t __ZNKSt3__18functionIFvPvPKhjjfPbEEclES1_S3_jjfS4_
000000000002e8b8 t __ZNKSt3__18functionIFvPvPN3nlp15_TrieCompletionEPbEEclES1_S4_S5_
000000000002e802 t __ZNKSt3__18functionIFvPvPN3nlp15_TrieCompletionEbPbEEclES1_S4_bS5_
                 U __ZNKSt3__18ios_base6getlocEv
                 U __ZNKSt9exception4whatEv
                 U __ZNSt11logic_errorC2EPKc
                 U __ZNSt12length_errorD1Ev
000000000001940a t __ZNSt3__110__function6__funcIPFvPvPN3nlp15_TrieCompletionEPbENS_9allocatorIS8_EES7_E18destroy_deallocateEv
0000000000019404 t __ZNSt3__110__function6__funcIPFvPvPN3nlp15_TrieCompletionEPbENS_9allocatorIS8_EES7_E7destroyEv
00000000000193ae t __ZNSt3__110__function6__funcIPFvPvPN3nlp15_TrieCompletionEPbENS_9allocatorIS8_EES7_ED0Ev
00000000000193a8 t __ZNSt3__110__function6__funcIPFvPvPN3nlp15_TrieCompletionEPbENS_9allocatorIS8_EES7_ED1Ev
0000000000019414 t __ZNSt3__110__function6__funcIPFvPvPN3nlp15_TrieCompletionEPbENS_9allocatorIS8_EES7_EclEOS2_OS5_OS6_
000000000001940a t __ZNSt3__110__function6__funcIPFvPvPN3nlp15_TrieCompletionEbPbENS_9allocatorIS8_EES7_E18destroy_deallocateEv
0000000000019404 t __ZNSt3__110__function6__funcIPFvPvPN3nlp15_TrieCompletionEbPbENS_9allocatorIS8_EES7_E7destroyEv
000000000001940a t __ZNSt3__110__function6__funcIPFvPvPN3nlp15_TrieCompletionEbPbENS_9allocatorIS8_EES7_ED0Ev
0000000000019404 t __ZNSt3__110__function6__funcIPFvPvPN3nlp15_TrieCompletionEbPbENS_9allocatorIS8_EES7_ED1Ev
000000000002e968 t __ZNSt3__110__function6__funcIPFvPvPN3nlp15_TrieCompletionEbPbENS_9allocatorIS8_EES7_EclEOS2_OS5_ObOS6_
0000000000032244 t __ZNSt3__110__function6__funcIZN3nlp15BurstTrieSearchEPKNS2_10_BurstTrieEPKhjPvNS_8functionIFvS8_PNS2_15_TrieCompletionEPbEEEiE3$_0NS_9allocatorISF_EEFvS8_S7_jjfSC_EE18destroy_deallocateEv
000000000003223e t __ZNSt3__110__function6__funcIZN3nlp15BurstTrieSearchEPKNS2_10_BurstTrieEPKhjPvNS_8functionIFvS8_PNS2_15_TrieCompletionEPbEEEiE3$_0NS_9allocatorISF_EEFvS8_S7_jjfSC_EE7destroyEv
00000000000321d0 t __ZNSt3__110__function6__funcIZN3nlp15BurstTrieSearchEPKNS2_10_BurstTrieEPKhjPvNS_8functionIFvS8_PNS2_15_TrieCompletionEPbEEEiE3$_0NS_9allocatorISF_EEFvS8_S7_jjfSC_EED0Ev
00000000000321ca t __ZNSt3__110__function6__funcIZN3nlp15BurstTrieSearchEPKNS2_10_BurstTrieEPKhjPvNS_8functionIFvS8_PNS2_15_TrieCompletionEPbEEEiE3$_0NS_9allocatorISF_EEFvS8_S7_jjfSC_EED1Ev
000000000003224e t __ZNSt3__110__function6__funcIZN3nlp15BurstTrieSearchEPKNS2_10_BurstTrieEPKhjPvNS_8functionIFvS8_PNS2_15_TrieCompletionEPbEEEiE3$_0NS_9allocatorISF_EEFvS8_S7_jjfSC_EEclEOS8_OS7_OjSM_OfOSC_
0000000000032074 t __ZNSt3__110__function6__funcIZN3nlpL12reverseBurstIPNS2_10_TrieLevelEPNS2_9_ListNodeEEEvPNS2_10_BurstTrieERKNS_6vectorIT_NS_9allocatorISB_EEEEPKhjEUlPvSI_jjfPbE0_NSC_ISL_EEFvSJ_SI_jjfSK_EE18destroy_deallocateEv
000000000003206e t __ZNSt3__110__function6__funcIZN3nlpL12reverseBurstIPNS2_10_TrieLevelEPNS2_9_ListNodeEEEvPNS2_10_BurstTrieERKNS_6vectorIT_NS_9allocatorISB_EEEEPKhjEUlPvSI_jjfPbE0_NSC_ISL_EEFvSJ_SI_jjfSK_EE7destroyEv
0000000000032020 t __ZNSt3__110__function6__funcIZN3nlpL12reverseBurstIPNS2_10_TrieLevelEPNS2_9_ListNodeEEEvPNS2_10_BurstTrieERKNS_6vectorIT_NS_9allocatorISB_EEEEPKhjEUlPvSI_jjfPbE0_NSC_ISL_EEFvSJ_SI_jjfSK_EED0Ev
000000000003201a t __ZNSt3__110__function6__funcIZN3nlpL12reverseBurstIPNS2_10_TrieLevelEPNS2_9_ListNodeEEEvPNS2_10_BurstTrieERKNS_6vectorIT_NS_9allocatorISB_EEEEPKhjEUlPvSI_jjfPbE0_NSC_ISL_EEFvSJ_SI_jjfSK_EED1Ev
000000000003207e t __ZNSt3__110__function6__funcIZN3nlpL12reverseBurstIPNS2_10_TrieLevelEPNS2_9_ListNodeEEEvPNS2_10_BurstTrieERKNS_6vectorIT_NS_9allocatorISB_EEEEPKhjEUlPvSI_jjfPbE0_NSC_ISL_EEFvSJ_SI_jjfSK_EEclEOSJ_OSI_OjSR_OfOSK_
0000000000031fda t __ZNSt3__110__function6__funcIZN3nlpL12reverseBurstIPNS2_10_TrieLevelEPNS2_9_ListNodeEEEvPNS2_10_BurstTrieERKNS_6vectorIT_NS_9allocatorISB_EEEEPKhjEUlPvSI_jjfPbE_NSC_ISL_EEFvSJ_SI_jjfSK_EE18destroy_deallocateEv
0000000000031fd4 t __ZNSt3__110__function6__funcIZN3nlpL12reverseBurstIPNS2_10_TrieLevelEPNS2_9_ListNodeEEEvPNS2_10_BurstTrieERKNS_6vectorIT_NS_9allocatorISB_EEEEPKhjEUlPvSI_jjfPbE_NSC_ISL_EEFvSJ_SI_jjfSK_EE7destroyEv
0000000000031f86 t __ZNSt3__110__function6__funcIZN3nlpL12reverseBurstIPNS2_10_TrieLevelEPNS2_9_ListNodeEEEvPNS2_10_BurstTrieERKNS_6vectorIT_NS_9allocatorISB_EEEEPKhjEUlPvSI_jjfPbE_NSC_ISL_EEFvSJ_SI_jjfSK_EED0Ev
0000000000031f80 t __ZNSt3__110__function6__funcIZN3nlpL12reverseBurstIPNS2_10_TrieLevelEPNS2_9_ListNodeEEEvPNS2_10_BurstTrieERKNS_6vectorIT_NS_9allocatorISB_EEEEPKhjEUlPvSI_jjfPbE_NSC_ISL_EEFvSJ_SI_jjfSK_EED1Ev
0000000000031fe4 t __ZNSt3__110__function6__funcIZN3nlpL12reverseBurstIPNS2_10_TrieLevelEPNS2_9_ListNodeEEEvPNS2_10_BurstTrieERKNS_6vectorIT_NS_9allocatorISB_EEEEPKhjEUlPvSI_jjfPbE_NSC_ISL_EEFvSJ_SI_jjfSK_EEclEOSJ_OSI_OjSR_OfOSK_
0000000000031a88 t __ZNSt3__110__function6__funcIZN3nlpL12reverseBurstIPNS2_16_RankedTrieLevelEPNS2_15_RankedListNodeEEEvPNS2_10_BurstTrieERKNS_6vectorIT_NS_9allocatorISB_EEEEPKhjEUlPvSI_jjfPbE0_NSC_ISL_EEFvSJ_SI_jjfSK_EE18destroy_deallocateEv
0000000000031a82 t __ZNSt3__110__function6__funcIZN3nlpL12reverseBurstIPNS2_16_RankedTrieLevelEPNS2_15_RankedListNodeEEEvPNS2_10_BurstTrieERKNS_6vectorIT_NS_9allocatorISB_EEEEPKhjEUlPvSI_jjfPbE0_NSC_ISL_EEFvSJ_SI_jjfSK_EE7destroyEv
0000000000031a34 t __ZNSt3__110__function6__funcIZN3nlpL12reverseBurstIPNS2_16_RankedTrieLevelEPNS2_15_RankedListNodeEEEvPNS2_10_BurstTrieERKNS_6vectorIT_NS_9allocatorISB_EEEEPKhjEUlPvSI_jjfPbE0_NSC_ISL_EEFvSJ_SI_jjfSK_EED0Ev
0000000000031a2e t __ZNSt3__110__function6__funcIZN3nlpL12reverseBurstIPNS2_16_RankedTrieLevelEPNS2_15_RankedListNodeEEEvPNS2_10_BurstTrieERKNS_6vectorIT_NS_9allocatorISB_EEEEPKhjEUlPvSI_jjfPbE0_NSC_ISL_EEFvSJ_SI_jjfSK_EED1Ev
0000000000031a92 t __ZNSt3__110__function6__funcIZN3nlpL12reverseBurstIPNS2_16_RankedTrieLevelEPNS2_15_RankedListNodeEEEvPNS2_10_BurstTrieERKNS_6vectorIT_NS_9allocatorISB_EEEEPKhjEUlPvSI_jjfPbE0_NSC_ISL_EEFvSJ_SI_jjfSK_EEclEOSJ_OSI_OjSR_OfOSK_
00000000000318a4 t __ZNSt3__110__function6__funcIZN3nlpL12reverseBurstIPNS2_16_RankedTrieLevelEPNS2_15_RankedListNodeEEEvPNS2_10_BurstTrieERKNS_6vectorIT_NS_9allocatorISB_EEEEPKhjEUlPvSI_jjfPbE_NSC_ISL_EEFvSJ_SI_jjfSK_EE18destroy_deallocateEv
000000000003189e t __ZNSt3__110__function6__funcIZN3nlpL12reverseBurstIPNS2_16_RankedTrieLevelEPNS2_15_RankedListNodeEEEvPNS2_10_BurstTrieERKNS_6vectorIT_NS_9allocatorISB_EEEEPKhjEUlPvSI_jjfPbE_NSC_ISL_EEFvSJ_SI_jjfSK_EE7destroyEv
0000000000031850 t __ZNSt3__110__function6__funcIZN3nlpL12reverseBurstIPNS2_16_RankedTrieLevelEPNS2_15_RankedListNodeEEEvPNS2_10_BurstTrieERKNS_6vectorIT_NS_9allocatorISB_EEEEPKhjEUlPvSI_jjfPbE_NSC_ISL_EEFvSJ_SI_jjfSK_EED0Ev
000000000003184a t __ZNSt3__110__function6__funcIZN3nlpL12reverseBurstIPNS2_16_RankedTrieLevelEPNS2_15_RankedListNodeEEEvPNS2_10_BurstTrieERKNS_6vectorIT_NS_9allocatorISB_EEEEPKhjEUlPvSI_jjfPbE_NSC_ISL_EEFvSJ_SI_jjfSK_EED1Ev
00000000000318ae t __ZNSt3__110__function6__funcIZN3nlpL12reverseBurstIPNS2_16_RankedTrieLevelEPNS2_15_RankedListNodeEEEvPNS2_10_BurstTrieERKNS_6vectorIT_NS_9allocatorISB_EEEEPKhjEUlPvSI_jjfPbE_NSC_ISL_EEFvSJ_SI_jjfSK_EEclEOSJ_OSI_OjSR_OfOSK_
0000000000013382 t __ZNSt3__112__hash_tableINS_17__hash_value_typeINS_12basic_stringIcNS_11char_traitsIcEENS_9allocatorIcEEEEiEENS_22__unordered_map_hasherIS7_S8_NS_4hashIS7_EELb1EEENS_21__unordered_map_equalIS7_S8_NS_8equal_toIS7_EELb1EEENS5_IS8_EEE17__deallocate_nodeEPNS_16__hash_node_baseIPNS_11__hash_nodeIS8_PvEEEE
0000000000014062 t __ZNSt3__112__hash_tableINS_17__hash_value_typeINS_12basic_stringIcNS_11char_traitsIcEENS_9allocatorIcEEEEiEENS_22__unordered_map_hasherIS7_S8_NS_4hashIS7_EELb1EEENS_21__unordered_map_equalIS7_S8_NS_8equal_toIS7_EELb1EEENS5_IS8_EEE21__construct_node_hashIRKNS_21piecewise_construct_tEJNS_5tupleIJRKS7_EEENSN_IJEEEEEENS_10unique_ptrINS_11__hash_nodeIS8_PvEENS_22__hash_node_destructorINS5_ISV_EEEEEEmOT_DpOT0_
0000000000014de0 t __ZNSt3__112__hash_tableINS_17__hash_value_typeINS_12basic_stringIcNS_11char_traitsIcEENS_9allocatorIcEEEEiEENS_22__unordered_map_hasherIS7_S8_NS_4hashIS7_EELb1EEENS_21__unordered_map_equalIS7_S8_NS_8equal_toIS7_EELb1EEENS5_IS8_EEE21__construct_node_hashIRKNS_4pairIKS7_iEEJEEENS_10unique_ptrINS_11__hash_nodeIS8_PvEENS_22__hash_node_destructorINS5_ISS_EEEEEEmOT_DpOT0_
00000000000139e0 t __ZNSt3__112__hash_tableINS_17__hash_value_typeINS_12basic_stringIcNS_11char_traitsIcEENS_9allocatorIcEEEEiEENS_22__unordered_map_hasherIS7_S8_NS_4hashIS7_EELb1EEENS_21__unordered_map_equalIS7_S8_NS_8equal_toIS7_EELb1EEENS5_IS8_EEE4findIS7_EENS_15__hash_iteratorIPNS_11__hash_nodeIS8_PvEEEERKT_
00000000000144a0 t __ZNSt3__112__hash_tableINS_17__hash_value_typeINS_12basic_stringIcNS_11char_traitsIcEENS_9allocatorIcEEEEiEENS_22__unordered_map_hasherIS7_S8_NS_4hashIS7_EELb1EEENS_21__unordered_map_equalIS7_S8_NS_8equal_toIS7_EELb1EEENS5_IS8_EEE5clearEv
00000000000140ec t __ZNSt3__112__hash_tableINS_17__hash_value_typeINS_12basic_stringIcNS_11char_traitsIcEENS_9allocatorIcEEEEiEENS_22__unordered_map_hasherIS7_S8_NS_4hashIS7_EELb1EEENS_21__unordered_map_equalIS7_S8_NS_8equal_toIS7_EELb1EEENS5_IS8_EEE6rehashEm
00000000000141fa t __ZNSt3__112__hash_tableINS_17__hash_value_typeINS_12basic_stringIcNS_11char_traitsIcEENS_9allocatorIcEEEEiEENS_22__unordered_map_hasherIS7_S8_NS_4hashIS7_EELb1EEENS_21__unordered_map_equalIS7_S8_NS_8equal_toIS7_EELb1EEENS5_IS8_EEE8__rehashEm
0000000000013354 t __ZNSt3__112__hash_tableINS_17__hash_value_typeINS_12basic_stringIcNS_11char_traitsIcEENS_9allocatorIcEEEEiEENS_22__unordered_map_hasherIS7_S8_NS_4hashIS7_EELb1EEENS_21__unordered_map_equalIS7_S8_NS_8equal_toIS7_EELb1EEENS5_IS8_EEED2Ev
0000000000013416 t __ZNSt3__112__hash_tableINS_17__hash_value_typeIjiEENS_22__unordered_map_hasherIjS2_NS_4hashIjEELb1EEENS_21__unordered_map_equalIjS2_NS_8equal_toIjEELb1EEENS_9allocatorIS2_EEE4findIjEENS_15__hash_iteratorIPNS_11__hash_nodeIS2_PvEEEERKT_
0000000000015aac t __ZNSt3__112__hash_tableINS_17__hash_value_typeIjiEENS_22__unordered_map_hasherIjS2_NS_4hashIjEELb1EEENS_21__unordered_map_equalIjS2_NS_8equal_toIjEELb1EEENS_9allocatorIS2_EEE5clearEv
00000000000151d4 t __ZNSt3__112__hash_tableINS_17__hash_value_typeIjiEENS_22__unordered_map_hasherIjS2_NS_4hashIjEELb1EEENS_21__unordered_map_equalIjS2_NS_8equal_toIjEELb1EEENS_9allocatorIS2_EEE6rehashEm
00000000000152e2 t __ZNSt3__112__hash_tableINS_17__hash_value_typeIjiEENS_22__unordered_map_hasherIjS2_NS_4hashIjEELb1EEENS_21__unordered_map_equalIjS2_NS_8equal_toIjEELb1EEENS_9allocatorIS2_EEE8__rehashEm
0000000000013668 t __ZNSt3__112__hash_tableINS_17__hash_value_typeIjiEENS_22__unordered_map_hasherIjS2_NS_4hashIjEELb1EEENS_21__unordered_map_equalIjS2_NS_8equal_toIjEELb1EEENS_9allocatorIS2_EEED2Ev
                 U __ZNSt3__112__next_primeEm
                 U __ZNSt3__112__rs_defaultD1Ev
                 U __ZNSt3__112__rs_defaultclEv
                 U __ZNSt3__112basic_stringIcNS_11char_traitsIcEENS_9allocatorIcEEE6appendEPKc
                 U __ZNSt3__112basic_stringIcNS_11char_traitsIcEENS_9allocatorIcEEE6appendEPKcm
                 U __ZNSt3__112basic_stringIcNS_11char_traitsIcEENS_9allocatorIcEEE6assignEPKc
                 U __ZNSt3__112basic_stringIcNS_11char_traitsIcEENS_9allocatorIcEEE7reserveEm
                 U __ZNSt3__112basic_stringIcNS_11char_traitsIcEENS_9allocatorIcEEEC1ERKS5_
                 U __ZNSt3__112basic_stringIcNS_11char_traitsIcEENS_9allocatorIcEEEaSERKS5_
000000000001326e t __ZNSt3__113__vector_baseIN26ME_Efficient_Model_Trainer6SampleENS_9allocatorIS2_EEED2Ev
00000000000144f2 t __ZNSt3__113__vector_baseINS_12basic_stringIcNS_11char_traitsIcEENS_9allocatorIcEEEENS4_IS6_EEED2Ev
000000000001a764 t __ZNSt3__113__vector_baseINS_4pairINS_12basic_stringIcNS_11char_traitsIcEENS_9allocatorIcEEEEdEENS5_IS8_EEED2Ev
0000000000031cdc t __ZNSt3__113__vector_baseINS_5tupleIJNS_12basic_stringIcNS_11char_traitsIcEENS_9allocatorIcEEEEjfEEENS5_IS8_EEED2Ev
00000000000132f2 t __ZNSt3__113__vector_baseINS_6vectorIiNS_9allocatorIiEEEENS2_IS4_EEED2Ev
                 U __ZNSt3__113basic_ostreamIcNS_11char_traitsIcEEE3putEc
                 U __ZNSt3__113basic_ostreamIcNS_11char_traitsIcEEE5flushEv
                 U __ZNSt3__113basic_ostreamIcNS_11char_traitsIcEEE6sentryC1ERS3_
                 U __ZNSt3__113basic_ostreamIcNS_11char_traitsIcEEE6sentryD1Ev
                 U __ZNSt3__113basic_ostreamIcNS_11char_traitsIcEEElsEd
                 U __ZNSt3__113basic_ostreamIcNS_11char_traitsIcEEElsEi
                 U __ZNSt3__113basic_ostreamIcNS_11char_traitsIcEEElsEm
0000000000014a4e t __ZNSt3__113unordered_mapINS_12basic_stringIcNS_11char_traitsIcEENS_9allocatorIcEEEEiNS_4hashIS6_EENS_8equal_toIS6_EENS4_INS_4pairIKS6_iEEEEEC2ERKSF_
00000000000136a6 t __ZNSt3__113unordered_mapINS_12basic_stringIcNS_11char_traitsIcEENS_9allocatorIcEEEEiNS_4hashIS6_EENS_8equal_toIS6_EENS4_INS_4pairIKS6_iEEEEEixERSC_
0000000000014f54 t __ZNSt3__113unordered_mapIjiNS_4hashIjEENS_8equal_toIjEENS_9allocatorINS_4pairIKjiEEEEEC2ERKSA_
0000000000010746 t __ZNSt3__113unordered_mapIjiNS_4hashIjEENS_8equal_toIjEENS_9allocatorINS_4pairIKjiEEEEEixEOj
00000000000135b8 t __ZNSt3__114__split_bufferIN26ME_Efficient_Model_Trainer10ME_FeatureERNS_9allocatorIS2_EEEC2EmmS5_
00000000000165b0 t __ZNSt3__114__split_bufferIN26ME_Efficient_Model_Trainer6SampleERNS_9allocatorIS2_EEEC2EmmS5_
0000000000016676 t __ZNSt3__114__split_bufferIN26ME_Efficient_Model_Trainer6SampleERNS_9allocatorIS2_EEED2Ev
000000000001599a t __ZNSt3__114__split_bufferINS_12basic_stringIcNS_11char_traitsIcEENS_9allocatorIcEEEERNS4_IS6_EEEC2EmmS8_
0000000000015a5c t __ZNSt3__114__split_bufferINS_12basic_stringIcNS_11char_traitsIcEENS_9allocatorIcEEEERNS4_IS6_EEED2Ev
000000000001a660 t __ZNSt3__114__split_bufferINS_4pairINS_12basic_stringIcNS_11char_traitsIcEENS_9allocatorIcEEEEdEERNS5_IS8_EEEC2EmmSA_
000000000001a714 t __ZNSt3__114__split_bufferINS_4pairINS_12basic_stringIcNS_11char_traitsIcEENS_9allocatorIcEEEEdEERNS5_IS8_EEED2Ev
00000000000162da t __ZNSt3__114__split_bufferINS_4pairIidEERNS_9allocatorIS2_EEEC2EmmS5_
000000000003197a t __ZNSt3__114__split_bufferINS_5tupleIJNS_12basic_stringIcNS_11char_traitsIcEENS_9allocatorIcEEEEjfEEERNS5_IS8_EEEC2EmmSA_
000000000001a714 t __ZNSt3__114__split_bufferINS_5tupleIJNS_12basic_stringIcNS_11char_traitsIcEENS_9allocatorIcEEEEjfEEERNS5_IS8_EEED2Ev
0000000000016092 t __ZNSt3__114__split_bufferINS_6vectorIiNS_9allocatorIiEEEERNS2_IS4_EEEC2EmmS6_
0000000000016154 t __ZNSt3__114__split_bufferINS_6vectorIiNS_9allocatorIiEEEERNS2_IS4_EEED2Ev
0000000000031e64 t __ZNSt3__114__split_bufferIPN3nlp10_TrieLevelERNS_9allocatorIS3_EEEC2EmmS6_
00000000000316b6 t __ZNSt3__114__split_bufferIPN3nlp16_RankedTrieLevelERNS_9allocatorIS3_EEEC2EmmS6_
0000000000006966 t __ZNSt3__114__split_bufferIdRNS_9allocatorIdEEEC2EmmS3_
0000000000015e88 t __ZNSt3__114__split_bufferIiRNS_9allocatorIiEEEC2EmmS3_
000000000000c470 t __ZNSt3__114random_shuffleINS_11__wrap_iterIPiEEEEvT_S4_
00000000000156d8 t __ZNSt3__116__pad_and_outputIcNS_11char_traitsIcEEEENS_19ostreambuf_iteratorIT_T0_EES6_PKS4_S8_S8_RNS_8ios_baseES4_
000000000002cbe8 t __ZNSt3__117bad_function_callD0Ev
000000000002cbde t __ZNSt3__117bad_function_callD1Ev
000000000001871a t __ZNSt3__118__insertion_sort_3IRNS_6__lessIN26ME_Efficient_Model_Trainer6SampleES3_EEPS3_EEvT0_S7_T_
0000000000013e00 t __ZNSt3__121__murmur2_or_cityhashImLm64EE18__hash_len_0_to_16EPKcm
0000000000013ee8 t __ZNSt3__121__murmur2_or_cityhashImLm64EE19__hash_len_17_to_32EPKcm
0000000000013f92 t __ZNSt3__121__murmur2_or_cityhashImLm64EE19__hash_len_33_to_64EPKcm
0000000000013b68 t __ZNSt3__121__murmur2_or_cityhashImLm64EEclEPKvm
0000000000015586 t __ZNSt3__124__put_character_sequenceIcNS_11char_traitsIcEEEERNS_13basic_ostreamIT_T0_EES7_PKS4_m
000000000000c8ae t __ZNSt3__124uniform_int_distributionIlEclINS_12__rs_defaultEEElRT_RKNS1_10param_typeE
000000000000ca4a t __ZNSt3__125__independent_bits_engineINS_12__rs_defaultEyE6__evalENS_17integral_constantIbLb1EEE
000000000000c942 t __ZNSt3__125__independent_bits_engineINS_12__rs_defaultEyEC2ERS1_m
0000000000018b52 t __ZNSt3__127__insertion_sort_incompleteIRNS_6__lessIN26ME_Efficient_Model_Trainer6SampleES3_EEPS3_EEbT0_S7_T_
                 U __ZNSt3__14cerrE
                 U __ZNSt3__15ctypeIcE2idE
00000000000166ee t __ZNSt3__16__sortIRNS_6__lessIN26ME_Efficient_Model_Trainer6SampleES3_EEPS3_EEvT0_S7_T_
                 U __ZNSt3__16localeD1Ev
0000000000013496 t __ZNSt3__16vectorIN26ME_Efficient_Model_Trainer10ME_FeatureENS_9allocatorIS2_EEE21__push_back_slow_pathIRKS2_EEvOT_
000000000000c612 t __ZNSt3__16vectorIN26ME_Efficient_Model_Trainer10ME_FeatureENS_9allocatorIS2_EEE8allocateEm
0000000000015480 t __ZNSt3__16vectorIN26ME_Efficient_Model_Trainer10ME_FeatureENS_9allocatorIS2_EEEC2ERKS5_
0000000000014876 t __ZNSt3__16vectorIN26ME_Efficient_Model_Trainer6SampleENS_9allocatorIS2_EEE18__construct_at_endIPS2_EENS_9enable_ifIXsr21__is_forward_iteratorIT_EE5valueEvE4typeES9_S9_m
000000000001638e t __ZNSt3__16vectorIN26ME_Efficient_Model_Trainer6SampleENS_9allocatorIS2_EEE21__push_back_slow_pathIRKS2_EEvOT_
00000000000164c2 t __ZNSt3__16vectorIN26ME_Efficient_Model_Trainer6SampleENS_9allocatorIS2_EEE26__swap_out_circular_bufferERNS_14__split_bufferIS2_RS4_EE
0000000000014832 t __ZNSt3__16vectorIN26ME_Efficient_Model_Trainer6SampleENS_9allocatorIS2_EEE8allocateEm
00000000000147bc t __ZNSt3__16vectorIN26ME_Efficient_Model_Trainer6SampleENS_9allocatorIS2_EEEC2ERKS5_
000000000000f58a t __ZNSt3__16vectorIN26ME_Efficient_Model_Trainer6SampleENS_9allocatorIS2_EEED1Ev
0000000000015f38 t __ZNSt3__16vectorINS0_IiNS_9allocatorIiEEEENS1_IS3_EEE21__push_back_slow_pathIRKS3_EEvOT_
0000000000016004 t __ZNSt3__16vectorINS0_IiNS_9allocatorIiEEEENS1_IS3_EEE26__swap_out_circular_bufferERNS_14__split_bufferIS3_RS4_EE
0000000000014f02 t __ZNSt3__16vectorINS0_IiNS_9allocatorIiEEEENS1_IS3_EEE8allocateEm
00000000000154f2 t __ZNSt3__16vectorINS0_IiNS_9allocatorIiEEEENS1_IS3_EEEC2ERKS5_
000000000000f594 t __ZNSt3__16vectorINS0_IiNS_9allocatorIiEEEENS1_IS3_EEED1Ev
0000000000015840 t __ZNSt3__16vectorINS_12basic_stringIcNS_11char_traitsIcEENS_9allocatorIcEEEENS4_IS6_EEE21__push_back_slow_pathIRKS6_EEvOT_
000000000001925a t __ZNSt3__16vectorINS_12basic_stringIcNS_11char_traitsIcEENS_9allocatorIcEEEENS4_IS6_EEE21__push_back_slow_pathIS6_EEvOT_
0000000000014f0e t __ZNSt3__16vectorINS_12basic_stringIcNS_11char_traitsIcEENS_9allocatorIcEEEENS4_IS6_EEE8allocateEm
0000000000014e6e t __ZNSt3__16vectorINS_12basic_stringIcNS_11char_traitsIcEENS_9allocatorIcEEEENS4_IS6_EEEC2ERKS8_
000000000001208a t __ZNSt3__16vectorINS_12basic_stringIcNS_11char_traitsIcEENS_9allocatorIcEEEENS4_IS6_EEED1Ev
000000000001a4e6 t __ZNSt3__16vectorINS_4pairINS_12basic_stringIcNS_11char_traitsIcEENS_9allocatorIcEEEEdEENS5_IS8_EEE21__push_back_slow_pathIS8_EEvOT_
000000000001a5ce t __ZNSt3__16vectorINS_4pairINS_12basic_stringIcNS_11char_traitsIcEENS_9allocatorIcEEEEdEENS5_IS8_EEE26__swap_out_circular_bufferERNS_14__split_bufferIS8_RS9_EE
0000000000015b86 t __ZNSt3__16vectorINS_4pairIidEENS_9allocatorIS2_EEE13__move_assignERS5_NS_17integral_constantIbLb1EEE
00000000000161aa t __ZNSt3__16vectorINS_4pairIidEENS_9allocatorIS2_EEE21__push_back_slow_pathIS2_EEvOT_
0000000000014a10 t __ZNSt3__16vectorINS_4pairIidEENS_9allocatorIS2_EEE8allocateEm
000000000001499e t __ZNSt3__16vectorINS_4pairIidEENS_9allocatorIS2_EEEC2ERKS5_
0000000000031bde t __ZNSt3__16vectorINS_5tupleIJNS_12basic_stringIcNS_11char_traitsIcEENS_9allocatorIcEEEEjfEEENS5_IS8_EEE24__emplace_back_slow_pathIJS7_RjRfEEEvDpOT_
00000000000318e4 t __ZNSt3__16vectorINS_5tupleIJNS_12basic_stringIcNS_11char_traitsIcEENS_9allocatorIcEEEEjfEEENS5_IS8_EEE26__swap_out_circular_bufferERNS_14__split_bufferIS8_RS9_EE
00000000000317da t __ZNSt3__16vectorINS_5tupleIJNS_12basic_stringIcNS_11char_traitsIcEENS_9allocatorIcEEEEjfEEENS5_IS8_EEE7reserveEm
0000000000031d3c t __ZNSt3__16vectorIPN3nlp10_TrieLevelENS_9allocatorIS3_EEE21__push_back_slow_pathIRKS3_EEvOT_
000000000003158e t __ZNSt3__16vectorIPN3nlp16_RankedTrieLevelENS_9allocatorIS3_EEE21__push_back_slow_pathIRKS3_EEvOT_
0000000000015b92 t __ZNSt3__16vectorIdNS_9allocatorIdEEE13__move_assignERS3_NS_17integral_constantIbLb1EEE
000000000000c78a t __ZNSt3__16vectorIdNS_9allocatorIdEEE21__push_back_slow_pathIdEEvOT_
0000000000006648 t __ZNSt3__16vectorIdNS_9allocatorIdEEE6assignIPdEENS_9enable_ifIXaasr21__is_forward_iteratorIT_EE5valuesr16is_constructibleIdNS_15iterator_traitsIS7_E9referenceEEE5valueEvE4typeES7_S7_
0000000000010b6c t __ZNSt3__16vectorIdNS_9allocatorIdEEE6resizeEm
00000000000067ce t __ZNSt3__16vectorIdNS_9allocatorIdEEE6resizeEmRKd
0000000000015bf0 t __ZNSt3__16vectorIdNS_9allocatorIdEEE8__appendEm
00000000000067fa t __ZNSt3__16vectorIdNS_9allocatorIdEEE8__appendEmRKd
000000000000c658 t __ZNSt3__16vectorIdNS_9allocatorIdEEE8allocateEm
0000000000006a16 t __ZNSt3__16vectorIdNS_9allocatorIdEEEC2ERKS3_
0000000000015b10 t __ZNSt3__16vectorIdNS_9allocatorIdEEEC2Em
000000000000c698 t __ZNSt3__16vectorIdNS_9allocatorIdEEEC2EmRKd
000000000000f56e t __ZNSt3__16vectorIdNS_9allocatorIdEEED1Ev
000000000002fe12 t __ZNSt3__16vectorIhNS_9allocatorIhEEE8allocateEm
000000000002fdae t __ZNSt3__16vectorIhNS_9allocatorIhEEEC2Em
000000000002fd92 t __ZNSt3__16vectorIhNS_9allocatorIhEEED1Ev
0000000000015b82 t __ZNSt3__16vectorIiNS_9allocatorIiEEE13__move_assignERS3_NS_17integral_constantIbLb1EEE
0000000000015d66 t __ZNSt3__16vectorIiNS_9allocatorIiEEE21__push_back_slow_pathIRKiEEvOT_
0000000000015d58 t __ZNSt3__16vectorIiNS_9allocatorIiEEE21__push_back_slow_pathIiEEvOT_
000000000000c616 t __ZNSt3__16vectorIiNS_9allocatorIiEEE8allocateEm
000000000001492c t __ZNSt3__16vectorIiNS_9allocatorIiEEEC2ERKS3_
000000000000c594 t __ZNSt3__16vectorIiNS_9allocatorIiEEEC2Em
000000000000c712 t __ZNSt3__16vectorIiNS_9allocatorIiEEEC2EmRKi
00000000000174a0 t __ZNSt3__17__sort3IRNS_6__lessIN26ME_Efficient_Model_Trainer6SampleES3_EEPS3_EEjT0_S7_S7_T_
0000000000017bca t __ZNSt3__17__sort4IRNS_6__lessIN26ME_Efficient_Model_Trainer6SampleES3_EEPS3_EEjT0_S7_S7_S7_T_
00000000000180b0 t __ZNSt3__17__sort5IRNS_6__lessIN26ME_Efficient_Model_Trainer6SampleES3_EEPS3_EEjT0_S7_S7_S7_S7_T_
                 U __ZNSt3__18__rs_getEv
000000000002e86c t __ZNSt3__18functionIFfPvffEEC2ERKS3_
000000000002e86c t __ZNSt3__18functionIFvPvPKhjjfPbEEC2ERKS6_
000000000002e86c t __ZNSt3__18functionIFvPvPN3nlp15_TrieCompletionEPbEEC2ERKS7_
000000000002e86c t __ZNSt3__18functionIFvPvPN3nlp15_TrieCompletionEbPbEEC2ERKS7_
                 U __ZNSt3__18ios_base33__set_badbit_and_consider_rethrowEv
                 U __ZNSt3__18ios_base5clearEj
                 U __ZNSt3__19to_stringEi
                 U __ZNSt3__19to_stringEj
00000000000351d0 s __ZNSt3__1L19piecewise_constructE
0000000000019c83 t __ZNSt3__1plIcNS_11char_traitsIcEENS_9allocatorIcEEEENS_12basic_stringIT_T0_T1_EERKS9_PKS6_
                 U __ZNSt9exceptionD2Ev
                 U __ZSt9terminatev
0000000000039730 s __ZTI11ONE_CLASS_Q
00000000000396e0 s __ZTI5SVC_Q
0000000000039780 s __ZTI5SVR_Q
00000000000395f0 s __ZTI6Kernel
0000000000039640 s __ZTI6Solver
00000000000395e0 s __ZTI7QMatrix
0000000000039690 s __ZTI9Solver_NU
00000000000394e8 s __ZTIFvPvPN3nlp15_TrieCompletionEPbE
0000000000039868 s __ZTIFvPvPN3nlp15_TrieCompletionEbPbE
00000000000398f8 s __ZTINSt3__110__function6__baseIFvPvPKhjjfPbEEE
00000000000394b8 s __ZTINSt3__110__function6__baseIFvPvPN3nlp15_TrieCompletionEPbEEE
0000000000039838 s __ZTINSt3__110__function6__baseIFvPvPN3nlp15_TrieCompletionEbPbEEE
00000000000394d0 s __ZTINSt3__110__function6__funcIPFvPvPN3nlp15_TrieCompletionEPbENS_9allocatorIS8_EES7_EE
0000000000039850 s __ZTINSt3__110__function6__funcIPFvPvPN3nlp15_TrieCompletionEbPbENS_9allocatorIS8_EES7_EE
0000000000039b10 s __ZTINSt3__110__function6__funcIZN3nlp15BurstTrieSearchEPKNS2_10_BurstTrieEPKhjPvNS_8functionIFvS8_PNS2_15_TrieCompletionEPbEEEiE3$_0NS_9allocatorISF_EEFvS8_S7_jjfSC_EEE
0000000000039a90 s __ZTINSt3__110__function6__funcIZN3nlpL12reverseBurstIPNS2_10_TrieLevelEPNS2_9_ListNodeEEEvPNS2_10_BurstTrieERKNS_6vectorIT_NS_9allocatorISB_EEEEPKhjEUlPvSI_jjfPbE0_NSC_ISL_EEFvSJ_SI_jjfSK_EEE
0000000000039a10 s __ZTINSt3__110__function6__funcIZN3nlpL12reverseBurstIPNS2_10_TrieLevelEPNS2_9_ListNodeEEEvPNS2_10_BurstTrieERKNS_6vectorIT_NS_9allocatorISB_EEEEPKhjEUlPvSI_jjfPbE_NSC_ISL_EEFvSJ_SI_jjfSK_EEE
0000000000039990 s __ZTINSt3__110__function6__funcIZN3nlpL12reverseBurstIPNS2_16_RankedTrieLevelEPNS2_15_RankedListNodeEEEvPNS2_10_BurstTrieERKNS_6vectorIT_NS_9allocatorISB_EEEEPKhjEUlPvSI_jjfPbE0_NSC_ISL_EEFvSJ_SI_jjfSK_EEE
0000000000039910 s __ZTINSt3__110__function6__funcIZN3nlpL12reverseBurstIPNS2_16_RankedTrieLevelEPNS2_15_RankedListNodeEEEvPNS2_10_BurstTrieERKNS_6vectorIT_NS_9allocatorISB_EEEEPKhjEUlPvSI_jjfPbE_NSC_ISL_EEFvSJ_SI_jjfSK_EEE
00000000000397a0 s __ZTINSt3__117bad_function_callE
0000000000039500 s __ZTIPFvPvPN3nlp15_TrieCompletionEPbE
0000000000039880 s __ZTIPFvPvPN3nlp15_TrieCompletionEbPbE
                 U __ZTISt12length_error
                 U __ZTISt9exception
0000000000039b28 s __ZTIZN3nlp15BurstTrieSearchEPKNS_10_BurstTrieEPKhjPvNSt3__18functionIFvS5_PNS_15_TrieCompletionEPbEEEiE3$_0
0000000000039aa8 s __ZTIZN3nlpL12reverseBurstIPNS_10_TrieLevelEPNS_9_ListNodeEEEvPNS_10_BurstTrieERKNSt3__16vectorIT_NS7_9allocatorIS9_EEEEPKhjEUlPvSG_jjfPbE0_
0000000000039a28 s __ZTIZN3nlpL12reverseBurstIPNS_10_TrieLevelEPNS_9_ListNodeEEEvPNS_10_BurstTrieERKNSt3__16vectorIT_NS7_9allocatorIS9_EEEEPKhjEUlPvSG_jjfPbE_
00000000000399a8 s __ZTIZN3nlpL12reverseBurstIPNS_16_RankedTrieLevelEPNS_15_RankedListNodeEEEvPNS_10_BurstTrieERKNSt3__16vectorIT_NS7_9allocatorIS9_EEEEPKhjEUlPvSG_jjfPbE0_
0000000000039928 s __ZTIZN3nlpL12reverseBurstIPNS_16_RankedTrieLevelEPNS_15_RankedListNodeEEEvPNS_10_BurstTrieERKNSt3__16vectorIT_NS7_9allocatorIS9_EEEEPKhjEUlPvSG_jjfPbE_
000000000003545f s __ZTS11ONE_CLASS_Q
0000000000035458 s __ZTS5SVC_Q
000000000003546d s __ZTS5SVR_Q
0000000000035434 s __ZTS6Kernel
0000000000035445 s __ZTS6Solver
000000000003543c s __ZTS7QMatrix
000000000003544d s __ZTS9Solver_NU
00000000000352b0 s __ZTSFvPvPN3nlp15_TrieCompletionEPbE
0000000000035580 s __ZTSFvPvPN3nlp15_TrieCompletionEbPbE
0000000000035680 s __ZTSNSt3__110__function6__baseIFvPvPKhjjfPbEEE
0000000000035240 s __ZTSNSt3__110__function6__baseIFvPvPN3nlp15_TrieCompletionEPbEEE
0000000000035510 s __ZTSNSt3__110__function6__baseIFvPvPN3nlp15_TrieCompletionEbPbEEE
00000000000351e0 s __ZTSNSt3__110__function6__funcIPFvPvPN3nlp15_TrieCompletionEPbENS_9allocatorIS8_EES7_EE
00000000000354b0 s __ZTSNSt3__110__function6__funcIPFvPvPN3nlp15_TrieCompletionEbPbENS_9allocatorIS8_EES7_EE
0000000000035b60 s __ZTSNSt3__110__function6__funcIZN3nlp15BurstTrieSearchEPKNS2_10_BurstTrieEPKhjPvNS_8functionIFvS8_PNS2_15_TrieCompletionEPbEEEiE3$_0NS_9allocatorISF_EEFvS8_S7_jjfSC_EEE
0000000000035a10 s __ZTSNSt3__110__function6__funcIZN3nlpL12reverseBurstIPNS2_10_TrieLevelEPNS2_9_ListNodeEEEvPNS2_10_BurstTrieERKNS_6vectorIT_NS_9allocatorISB_EEEEPKhjEUlPvSI_jjfPbE0_NSC_ISL_EEFvSJ_SI_jjfSK_EEE
00000000000358c0 s __ZTSNSt3__110__function6__funcIZN3nlpL12reverseBurstIPNS2_10_TrieLevelEPNS2_9_ListNodeEEEvPNS2_10_BurstTrieERKNS_6vectorIT_NS_9allocatorISB_EEEEPKhjEUlPvSI_jjfPbE_NSC_ISL_EEFvSJ_SI_jjfSK_EEE
0000000000035750 s __ZTSNSt3__110__function6__funcIZN3nlpL12reverseBurstIPNS2_16_RankedTrieLevelEPNS2_15_RankedListNodeEEEvPNS2_10_BurstTrieERKNS_6vectorIT_NS_9allocatorISB_EEEEPKhjEUlPvSI_jjfPbE0_NSC_ISL_EEFvSJ_SI_jjfSK_EEE
00000000000355b0 s __ZTSNSt3__110__function6__funcIZN3nlpL12reverseBurstIPNS2_16_RankedTrieLevelEPNS2_15_RankedListNodeEEEvPNS2_10_BurstTrieERKNS_6vectorIT_NS_9allocatorISB_EEEEPKhjEUlPvSI_jjfPbE_NSC_ISL_EEFvSJ_SI_jjfSK_EEE
0000000000035490 s __ZTSNSt3__117bad_function_callE
0000000000035280 s __ZTSPFvPvPN3nlp15_TrieCompletionEPbE
0000000000035550 s __ZTSPFvPvPN3nlp15_TrieCompletionEbPbE
0000000000035c10 s __ZTSZN3nlp15BurstTrieSearchEPKNS_10_BurstTrieEPKhjPvNSt3__18functionIFvS5_PNS_15_TrieCompletionEPbEEEiE3$_0
0000000000035ad0 s __ZTSZN3nlpL12reverseBurstIPNS_10_TrieLevelEPNS_9_ListNodeEEEvPNS_10_BurstTrieERKNSt3__16vectorIT_NS7_9allocatorIS9_EEEEPKhjEUlPvSG_jjfPbE0_
0000000000035980 s __ZTSZN3nlpL12reverseBurstIPNS_10_TrieLevelEPNS_9_ListNodeEEEvPNS_10_BurstTrieERKNSt3__16vectorIT_NS7_9allocatorIS9_EEEEPKhjEUlPvSG_jjfPbE_
0000000000035820 s __ZTSZN3nlpL12reverseBurstIPNS_16_RankedTrieLevelEPNS_15_RankedListNodeEEEvPNS_10_BurstTrieERKNSt3__16vectorIT_NS7_9allocatorIS9_EEEEPKhjEUlPvSG_jjfPbE0_
00000000000356b0 s __ZTSZN3nlpL12reverseBurstIPNS_16_RankedTrieLevelEPNS_15_RankedListNodeEEEvPNS_10_BurstTrieERKNSt3__16vectorIT_NS7_9allocatorIS9_EEEEPKhjEUlPvSG_jjfPbE_
00000000000396f8 s __ZTV11ONE_CLASS_Q
00000000000396a8 s __ZTV5SVC_Q
0000000000039748 s __ZTV5SVR_Q
0000000000039540 s __ZTV6Kernel
0000000000039608 s __ZTV6Solver
0000000000039650 s __ZTV9Solver_NU
                 U __ZTVN10__cxxabiv117__class_type_infoE
                 U __ZTVN10__cxxabiv119__pointer_type_infoE
                 U __ZTVN10__cxxabiv120__function_type_infoE
                 U __ZTVN10__cxxabiv120__si_class_type_infoE
0000000000039460 s __ZTVNSt3__110__function6__funcIPFvPvPN3nlp15_TrieCompletionEPbENS_9allocatorIS8_EES7_EE
00000000000397e0 s __ZTVNSt3__110__function6__funcIPFvPvPN3nlp15_TrieCompletionEbPbENS_9allocatorIS8_EES7_EE
0000000000039ab8 s __ZTVNSt3__110__function6__funcIZN3nlp15BurstTrieSearchEPKNS2_10_BurstTrieEPKhjPvNS_8functionIFvS8_PNS2_15_TrieCompletionEPbEEEiE3$_0NS_9allocatorISF_EEFvS8_S7_jjfSC_EEE
0000000000039a38 s __ZTVNSt3__110__function6__funcIZN3nlpL12reverseBurstIPNS2_10_TrieLevelEPNS2_9_ListNodeEEEvPNS2_10_BurstTrieERKNS_6vectorIT_NS_9allocatorISB_EEEEPKhjEUlPvSI_jjfPbE0_NSC_ISL_EEFvSJ_SI_jjfSK_EEE
00000000000399b8 s __ZTVNSt3__110__function6__funcIZN3nlpL12reverseBurstIPNS2_10_TrieLevelEPNS2_9_ListNodeEEEvPNS2_10_BurstTrieERKNS_6vectorIT_NS_9allocatorISB_EEEEPKhjEUlPvSI_jjfPbE_NSC_ISL_EEFvSJ_SI_jjfSK_EEE
0000000000039938 s __ZTVNSt3__110__function6__funcIZN3nlpL12reverseBurstIPNS2_16_RankedTrieLevelEPNS2_15_RankedListNodeEEEvPNS2_10_BurstTrieERKNS_6vectorIT_NS_9allocatorISB_EEEEPKhjEUlPvSI_jjfPbE0_NSC_ISL_EEFvSJ_SI_jjfSK_EEE
00000000000398a0 s __ZTVNSt3__110__function6__funcIZN3nlpL12reverseBurstIPNS2_16_RankedTrieLevelEPNS2_15_RankedListNodeEEEvPNS2_10_BurstTrieERKNS_6vectorIT_NS_9allocatorISB_EEEEPKhjEUlPvSI_jjfPbE_NSC_ISL_EEFvSJ_SI_jjfSK_EEE
00000000000397b8 s __ZTVNSt3__117bad_function_callE
                 U __ZTVSt12length_error
0000000000039b48 s __ZZN3nlpL12sharedBufferEvE6buffer
0000000000039b78 s __ZZN3nlpL12sharedBufferEvE6buffer$tlv$init
                 U __ZdaPv
                 U __ZdlPv
                 U __Znam
                 U __Znwm
                 U ___assert_rtn
                 U ___bzero
000000000000c580 t ___clang_call_terminate
                 U ___cxa_allocate_exception
                 U ___cxa_begin_catch
                 U ___cxa_end_catch
                 U ___cxa_free_exception
                 U ___cxa_pure_virtual
                 U ___cxa_throw
                 U ___gxx_personality_v0
                 U ___snprintf_chk
                 U ___stack_chk_fail
                 U ___stack_chk_guard
                 U ___stderrp
                 U ___stdoutp
0000000000035320 s __defparam
                 U __tlv_atexit
                 U __tlv_bootstrap
                 U _atof
                 U _atoi
000000000000e908 t _balance
                 U _bzero
                 U _calloc
0000000000003c66 t _check_values
                 U _clock
                 U _close
000000000000986c t _close_writer
0000000000008f46 t _cmw_close
0000000000008ff8 t _cmw_create_from_file_pointer
0000000000008f0f t _cmw_initialize_header
00000000000091e8 t _cmw_open_attribute_features
000000000000925b t _cmw_write_attribute_feature
0000000000009120 t _cmw_write_attribute_feature_counts_and_offsets
0000000000009072 t _cmw_write_label_features
000000000001dd99 t _cost_insensitive
000000000001dd8b t _cost_sensitive
0000000000001ecd t _cqdb_delete
000000000000200b t _cqdb_num
0000000000001d1c t _cqdb_reader
0000000000001f13 t _cqdb_to_id
0000000000001fdd t _cqdb_to_string
00000000000015e0 t _cqdb_writer
0000000000001878 t _cqdb_writer_close
0000000000001ce0 t _cqdb_writer_delete
0000000000001686 t _cqdb_writer_put
0000000000007fde t _create_buffer_from_file
000000000000943d t _create_compact_model_writer_from_file_pointer
00000000000097c0 t _create_quantized_model_writer_from_file_pointer
0000000000003ca6 t _crf1d_create_encoder
0000000000002c44 t _crf1dc_alpha_score
0000000000002eb1 t _crf1dc_beta_score
000000000000351c t _crf1dc_debug_context
0000000000002a93 t _crf1dc_delete
0000000000002b9f t _crf1dc_exp_state
0000000000002bf0 t _crf1dc_exp_transition
0000000000003392 t _crf1dc_lognorm
000000000000323b t _crf1dc_marginal_path
0000000000003205 t _crf1dc_marginal_point
0000000000003036 t _crf1dc_marginals
0000000000002840 t _crf1dc_new
0000000000002b12 t _crf1dc_reset
0000000000003336 t _crf1dc_score
000000000000290d t _crf1dc_set_num_items
000000000000339d t _crf1dc_viterbi
000000000000a21c t _crf1de_create_instance
000000000000a6a3 t _crf1de_create_trainer
0000000000004b09 t _crf1de_finish
0000000000004d51 t _crf1de_model_expectation
0000000000004c7b t _crf1de_state_score
0000000000004bfc t _crf1de_transition_score
0000000000004eb7 t _crf1de_write_model
0000000000006a87 t _crf1df_generate
0000000000006eb9 t _crf1df_init_references
0000000000008311 t _crf1dm_close
0000000000008566 t _crf1dm_dump
00000000000084f1 t _crf1dm_get_attrref
000000000000852c t _crf1dm_get_feature
000000000000851c t _crf1dm_get_featureid
00000000000084c6 t _crf1dm_get_labelref
00000000000083e0 t _crf1dm_get_num_attrs
000000000000841b t _crf1dm_get_num_labels
0000000000008a07 t _crf1dm_get_number_of_attributes
00000000000089fa t _crf1dm_get_number_of_labels
00000000000089f2 t _crf1dm_get_version
0000000000008108 t _crf1dm_initialize_header
0000000000008bc8 t _crf1dm_initialize_state_scores
0000000000008a14 t _crf1dm_initialize_transition_scores
0000000000008240 t _crf1dm_instantiate_internal
0000000000008298 t _crf1dm_new
0000000000008394 t _crf1dm_new_from_buffer
0000000000008483 t _crf1dm_to_aid
00000000000084a6 t _crf1dm_to_attr
0000000000008452 t _crf1dm_to_label
0000000000008469 t _crf1dm_to_lid
0000000000007471 t _crf1dmw_close
0000000000007ac0 t _crf1dmw_close_attrrefs
0000000000007653 t _crf1dmw_close_attrs
0000000000007d74 t _crf1dmw_close_features
00000000000077a7 t _crf1dmw_close_labelrefs
000000000000757a t _crf1dmw_close_labels
00000000000079d3 t _crf1dmw_open_attrrefs
00000000000075f1 t _crf1dmw_open_attrs
0000000000007cfc t _crf1dmw_open_features
00000000000076ba t _crf1dmw_open_labelrefs
0000000000007518 t _crf1dmw_open_labels
0000000000007690 t _crf1dmw_put_attr
0000000000007bfa t _crf1dmw_put_attrref
0000000000007e70 t _crf1dmw_put_feature
00000000000075b7 t _crf1dmw_put_label
00000000000078e1 t _crf1dmw_put_labelref
0000000000007cec t _crf1dmw_set_no_attributes
00000000000075e1 t _crf1dmw_set_no_labels
000000000000a1be t _crf1dt_delete
000000000000a1e3 t _crf1dt_set_level
00000000000098da t _crf1m_create_instance_from_buffer
000000000000988c t _crf1m_create_instance_from_file
0000000000009928 t _crf1m_model_initialize
000000000000717a t _crf1mmw
0000000000007122 t _crf1mmw_close_file_pointer
00000000000071fe t _crf1mmw_from_file_pointer
0000000000007107 t _crf1mmw_get_offset_from_beginning_of_model
00000000000070fa t _crf1mmw_get_offset_in_file
000000000000713c t _crf1mmw_initialize_header
0000000000020526 T _crf_content_copy
000000000002054e T _crf_content_init
0000000000020538 T _crf_content_set
00000000000201d7 T _crf_create_instance
00000000000202c8 T _crf_data_append
0000000000020202 T _crf_data_finish
00000000000201eb T _crf_data_init
00000000000203a8 T _crf_data_maxlength
00000000000203d5 T _crf_data_totalitems
0000000000020669 T _crf_evaluation_init
0000000000020569 T _crf_item_append_content
00000000000204a9 T _crf_item_copy
000000000002040c T _crf_item_finish
0000000000020513 T _crf_item_init
000000000001ffdb T _crf_output_finish
000000000001ff90 T _crf_output_init
000000000001ffa3 T _crf_output_init_n
0000000000020636 T _crf_paragraph_finish
0000000000020053 T _crf_paragraph_get_id
0000000000020001 T _crf_paragraph_get_item_count
000000000002001f T _crf_paragraph_get_item_count_for_sentence
00000000000205c4 T _crf_paragraph_init_with_attrs
00000000000200ab T _crf_paragraph_set_id
0000000000020432 T _crf_sequence_append
0000000000020325 T _crf_sequence_copy
000000000002025a T _crf_sequence_finish
00000000000203fd T _crf_sequence_init
000000000000a989 T _crfsuite_attribute_copy
000000000000a958 T _crfsuite_attribute_init
000000000000a973 T _crfsuite_attribute_set
000000000000a99b T _crfsuite_attribute_swap
000000000000a918 T _crfsuite_create_instance
000000000000a94e T _crfsuite_create_instance_from_file
000000000000b5de T _crfsuite_create_tokenizer_from_feature_file
000000000000aed7 T _crfsuite_data_append
000000000000ae2e T _crfsuite_data_copy
000000000000add6 T _crfsuite_data_finish
000000000000ad88 T _crfsuite_data_init
000000000000ad9f T _crfsuite_data_init_n
000000000000af34 T _crfsuite_data_maxlength
000000000000aeb1 T _crfsuite_data_swap
000000000000af61 T _crfsuite_data_totalitems
000000000000b639 T _crfsuite_delete_feature_tokenizer
000000000000b584 T _crfsuite_dictioanry_addref
000000000000b55a T _crfsuite_dictionary_create
000000000000b880 t _crfsuite_dictionary_create_instance
000000000000b5cb T _crfsuite_dictionary_get_count
000000000000b594 T _crfsuite_dictionary_get_id_for_string
000000000000b5aa T _crfsuite_dictionary_get_string_for_id
000000000000b58c T _crfsuite_dictionary_release
000000000000b086 T _crfsuite_evaluation_accmulate
000000000000afe1 T _crfsuite_evaluation_clear
000000000000b103 T _crfsuite_evaluation_finalize
000000000000b044 T _crfsuite_evaluation_finish
000000000000af89 T _crfsuite_evaluation_init
000000000000b270 T _crfsuite_evaluation_output
000000000000b6a5 T _crfsuite_feature_token_get_attribute
000000000000b68e T _crfsuite_feature_token_get_type
000000000000b6b8 T _crfsuite_feature_token_get_value
000000000000b677 T _crfsuite_feature_tokenizer_get_next_token
000000000000b5d3 T _crfsuite_get_id_from_dictionary
000000000000acff T _crfsuite_instance_append
000000000000ac0e T _crfsuite_instance_copy
000000000000ad7a T _crfsuite_instance_empty
000000000000ab96 T _crfsuite_instance_finish
000000000000ab35 T _crfsuite_instance_init
000000000000ab4c T _crfsuite_instance_init_n
000000000000accd T _crfsuite_instance_swap
000000000000b3d2 T _crfsuite_interlocked_decrement
000000000000b3c6 T _crfsuite_interlocked_increment
000000000000aacc T _crfsuite_item_append_attribute
000000000000aa43 T _crfsuite_item_copy
000000000000ab27 T _crfsuite_item_empty
000000000000aa21 T _crfsuite_item_finish
000000000000a9b9 T _crfsuite_item_init
000000000000a9c8 T _crfsuite_item_init_n
000000000000a9f7 T _crfsuite_item_init_with_capacity
000000000000aaa6 T _crfsuite_item_swap
000000000000b424 T _crfsuite_model_addref
000000000000b401 T _crfsuite_model_create_from_buffer
000000000000b3de T _crfsuite_model_create_from_file
000000000000b4a7 T _crfsuite_model_dump
000000000000b476 T _crfsuite_model_get_attrs
000000000000b455 T _crfsuite_model_get_labels
000000000000b49f T _crfsuite_model_get_number_of_attributes
000000000000b497 T _crfsuite_model_get_number_of_labels
000000000000b434 T _crfsuite_model_get_tagger
000000000000b42c T _crfsuite_model_release
000000000000b4f5 T _crfsuite_tagger_addref
000000000000b510 T _crfsuite_tagger_instance_length
000000000000b52e T _crfsuite_tagger_lognorm
000000000000b544 T _crfsuite_tagger_marginal_path
000000000000b539 T _crfsuite_tagger_marginal_point
000000000000b4fd T _crfsuite_tagger_release
000000000000b523 T _crfsuite_tagger_score
000000000000b505 T _crfsuite_tagger_set_instance
000000000000b54f T _crfsuite_tagger_tag_paragraph
000000000000b518 T _crfsuite_tagger_viterbi
000000000000a468 t _crfsuite_train_addref
000000000000ebf1 t _crfsuite_train_arow
000000000000eb18 t _crfsuite_train_arow_init
000000000001a803 t _crfsuite_train_averaged_perceptron
000000000001a7c3 t _crfsuite_train_averaged_perceptron_init
000000000001b010 t _crfsuite_train_l2sgd
000000000001b002 t _crfsuite_train_l2sgd_init
000000000001ce2c t _crfsuite_train_lbfgs
000000000001cc6e t _crfsuite_train_lbfgs_init
000000000000a392 t _crfsuite_train_new
000000000000a4da t _crfsuite_train_params
000000000001d573 t _crfsuite_train_passive_aggressive
000000000001d441 t _crfsuite_train_passive_aggressive_init
000000000000a476 t _crfsuite_train_release
000000000000a4e7 t _crfsuite_train_set_message_callback
000000000000a4fb t _crfsuite_train_to_file
000000000000a592 t _crfsuite_train_to_file_pointer
000000000000a753 t _crfsuite_train_train
000000000000b4bc T _crfsuite_trainer_addref
000000000000b4b2 T _crfsuite_trainer_create
000000000000b4cc T _crfsuite_trainer_get_params
000000000000b4c4 T _crfsuite_trainer_release
000000000000b4d4 T _crfsuite_trainer_set_message_callback
000000000000b4df T _crfsuite_trainer_train
000000000000b4ea T _crfsuite_trainer_train_model_to_file_pointer
000000000000b815 t _dataset_finish
000000000000b864 t _dataset_get
000000000000b770 t _dataset_init_testset
000000000000b6cb t _dataset_init_trainset
000000000000b823 t _dataset_shuffle
000000000000da1b t _delcb
000000000000f35d t _delta_collect
000000000001dddd t _delta_collect
000000000000f3cf t _delta_finish
000000000001de4f t _delta_finish
000000000000b94e t _dictionary_addref
000000000000ba0d t _dictionary_free
000000000000b98c t _dictionary_get
000000000000ba00 t _dictionary_num
000000000000b95c t _dictionary_release
000000000000b999 t _dictionary_to_id
000000000000b9a6 t _dictionary_to_string
0000000000003dab t _encoder_exchange_options
0000000000004712 t _encoder_features_on_path
0000000000003e80 t _encoder_initialize
000000000000493d t _encoder_objective_and_gradients
0000000000004097 t _encoder_objective_and_gradients_batch
0000000000004911 t _encoder_partition_factor
0000000000004ae0 t _encoder_release
000000000000420c t _encoder_save_model
0000000000004289 t _encoder_save_model_to_file_pointer
00000000000048c8 t _encoder_score
00000000000048ab t _encoder_set_instance
0000000000004889 t _encoder_set_weights
00000000000048ea t _encoder_viterbi
000000000000eb26 t _exchange_options
000000000001ad9c t _exchange_options
000000000001cc7c t _exchange_options
000000000001d44f t _exchange_options
                 U _exit
                 U _exp
                 U _fclose
0000000000006e7a t _featureset_add
00000000000070bc t _featureset_comp
                 U _ferror
                 U _fflush
                 U _fgets
                 U _fileno
000000000000d94f t _find_param
                 U _fopen
                 U _fprintf
                 U _fputc
                 U _fputs
                 U _fread
                 U _free
                 U _fscanf
                 U _fseek
                 U _ftell
                 U _fwrite
0000000000008b87 t _get_quantized_weight
0000000000008bb6 t _get_unquantized_weight
                 U _getc
                 U _gmtime
0000000000002644 t _hashbig
0000000000002226 t _hashlittle
0000000000002424 t _hashlittle2
0000000000002018 t _hashword
0000000000002111 t _hashword2
000000000000cafd t _holdout_evaluation
000000000000e19a t _insert_cb
000000000000ccde t _iwa_delete
000000000000cd2f t _iwa_read
000000000000cc08 t _iwa_reader
                 U _kCFAllocatorDefault
000000000000da0b t _keycmp
000000000001b668 t _l2sgd
000000000001dee4 t _lbfgs
000000000001d206 t _lbfgs_evaluate
000000000001dec3 t _lbfgs_free
000000000001de92 t _lbfgs_malloc
000000000001decd t _lbfgs_parameter_init
000000000001d2a9 t _lbfgs_progress
0000000000039b38 D _libsvm_version
000000000001f5b2 t _line_search_backtracking
000000000001f39b t _line_search_backtracking_owlqn
000000000001ed5d t _line_search_morethuente
                 U _log
000000000000cff9 t _logging
000000000000d13c t _logging_progress
000000000000d1ba t _logging_progress_end
000000000000d122 t _logging_progress_start
000000000000d0a2 t _logging_timestamp
                 U _lseek
                 U _malloc
0000000000019666 T _maxent_add_training_sample
0000000000019853 T _maxent_classify
000000000001a2cd T _maxent_copy_loaded_model_data
000000000001a21c T _maxent_copy_trained_model_data
0000000000019959 T _maxent_get_class_id
000000000001990e T _maxent_get_class_label
0000000000019696 T _maxent_load_from_file
00000000000197d5 T _maxent_load_with_bytes
0000000000019452 T _maxent_model_create
0000000000019a58 T _maxent_model_release
0000000000019a47 T _maxent_model_retain
00000000000194a5 T _maxent_mutable_model_release
000000000001983a T _maxent_num_classes
0000000000019e82 T _maxent_sample_add_feature
0000000000019f9c T _maxent_sample_add_feature_with_value
000000000001a13b T _maxent_sample_clear
0000000000019a95 T _maxent_sample_create
0000000000019aee T _maxent_sample_description
0000000000019e5d T _maxent_sample_get_label
000000000001a1cc T _maxent_sample_release
0000000000019d7a T _maxent_sample_set_label
00000000000194dd T _maxent_save_to_file
00000000000194ea T _maxent_save_to_file_with_threshold
00000000000195df T _maxent_set_heldout
0000000000019682 T _maxent_train
000000000001961f T _maxent_use_SGD
00000000000195f9 T _maxent_use_default_SGD
0000000000019640 T _maxent_use_l1_regularizer
0000000000019653 T _maxent_use_l2_regularizer
000000000000e8d0 t _mem_mgr
                 U _memcmp
                 U _memcpy
                 U _memmove
                 U _memset
                 U _memset_pattern16
                 U _mmap
000000000000a0d9 t _model_addref
0000000000009cf6 t _model_attrs_addref
0000000000009d4a t _model_attrs_free
0000000000009d08 t _model_attrs_get
0000000000009d3d t _model_attrs_num
0000000000009cff t _model_attrs_release
0000000000009d13 t _model_attrs_to_id
0000000000009d20 t _model_attrs_to_string
000000000000a18b t _model_dump
000000000000a155 t _model_get_attrs
000000000000a167 t _model_get_labels
000000000000a1ae t _model_get_number_of_attributes
000000000000a19e t _model_get_number_of_labels
000000000000a179 t _model_get_tagger
0000000000009d50 t _model_labels_addref
0000000000009da4 t _model_labels_free
0000000000009d62 t _model_labels_get
0000000000009d97 t _model_labels_num
0000000000009d59 t _model_labels_release
0000000000009d6d t _model_labels_to_id
0000000000009d7a t _model_labels_to_string
000000000000a0e7 t _model_release
                 U _munmap
000000000000dbf3 t _my_cmp
00000000000201e1 T _my_crf_create_instance_from_file
000000000000d7b0 t _mystrdup
000000000000df4b t _node_new
                 U _open
000000000000984a t _open_attribute_features
000000000000da2b t _owcb
000000000001f79c t _owlqn_pseudo_gradient
000000000000d7e3 t _params_add_float
000000000000d702 t _params_add_int
000000000000d898 t _params_add_string
000000000000d2e2 t _params_addref
000000000000d1e4 t _params_create_instance
000000000000d53a t _params_free
000000000000d45e t _params_get
000000000000d623 t _params_get_float
000000000000d5f1 t _params_get_int
000000000000d657 t _params_get_string
000000000000d68b t _params_help
000000000000d394 t _params_name
000000000000d389 t _params_num
000000000000d2f0 t _params_release
000000000000d3c0 t _params_set
000000000000d576 t _params_set_float
000000000000d547 t _params_set_int
000000000000d5b0 t _params_set_string
000000000000cec8 t _peek_char
                 U _posix_memalign
                 U _pow
                 U _pwrite
00000000000092fc t _qmw_close
00000000000093ae t _qmw_create_from_file_pointer
00000000000092b0 t _qmw_initialize_header
000000000000957e t _qmw_open_attribute_features
000000000000970c t _qmw_write_attribute_feature
00000000000095f1 t _qmw_write_attribute_feature_counts_and_offsets
00000000000094a3 t _qmw_write_label_features
                 U _qsort
000000000000da3b t _quark_delete
000000000000da70 t _quark_get
000000000000d996 t _quark_new
000000000000db70 t _quark_num
000000000000db27 t _quark_to_id
000000000000db57 t _quark_to_string
                 U _rand
                 U _read
0000000000007f95 t _read_attributes
000000000000cf17 t _read_field_unescaped
000000000000805a t _read_header_from_buffer
                 U _realloc
000000000000e9a0 t _rotate
000000000000e78f t _rumavl_alloc
000000000000dd28 t _rumavl_delcb
000000000000e1a5 t _rumavl_delete
000000000000dbfd t _rumavl_destroy
000000000000e6ba t _rumavl_find
000000000000e825 t _rumavl_foreach
000000000000e173 t _rumavl_insert
000000000000db78 t _rumavl_new
000000000000e6d6 t _rumavl_node_find
000000000000e7a3 t _rumavl_node_next
000000000000e81b t _rumavl_node_record
000000000000dd1e t _rumavl_owcb
000000000000e799 t _rumavl_record_size
000000000000dd32 t _rumavl_set
000000000000e8a7 t _rumavl_strerror
000000000000dd14 t _rumavl_udata
000000000000dcd6 t _seq_next
0000000000005469 t _set_level
000000000000dff7 t _stack_destroy
000000000000e037 t _stack_update
                 U _stat$INODE64
                 U _strcmp
                 U _strcpy
                 U _strftime
                 U _strlen
                 U _strncmp
                 U _strncpy
                 U _strrchr
                 U _strtod
                 U _strtok
                 U _strtol
0000000000026be1 T _svm_check_parameter
0000000000026ebd T _svm_check_probability_model
0000000000024a77 T _svm_cross_validation
0000000000026bc0 T _svm_destroy_param
00000000000257b5 T _svm_free_and_destroy_model
0000000000026aca T _svm_free_model_content
00000000000257ee T _svm_get_labels
000000000002511d T _svm_get_nr_class
00000000000257e6 T _svm_get_svm_type
000000000002581a T _svm_get_svr_probability
0000000000026010 T _svm_load_model
0000000000025746 T _svm_predict
0000000000025126 T _svm_predict_probability
000000000002585e T _svm_predict_values
0000000000025bce T _svm_save_model
0000000000026efe T _svm_set_print_string_function
00000000000227df T _svm_train
                 U _sysconf
0000000000009daa t _tagger_addref
0000000000009e00 t _tagger_length
0000000000009e5e t _tagger_lognorm
0000000000009ec6 t _tagger_marginal_path
0000000000009e88 t _tagger_marginal_point
0000000000009db3 t _tagger_release
0000000000009e37 t _tagger_score
0000000000009dbc t _tagger_set
0000000000009f13 t _tagger_tag_paragraph
0000000000009e10 t _tagger_viterbi
                 U _tanh
000000000001ddd3 t _tau0
000000000001dda7 t _tau1
000000000001ddb9 t _tau2
                 U _time
                 U _tmpfile
000000000001f840 t _update_trial_interval
000000000001ad6a t _update_weights
                 U _vsprintf
                 U _write
000000000000985b t _write_attribute_feature
0000000000009838 t _write_attribute_feature_counts_and_offsets
0000000000007270 t _write_header_to_file
0000000000009826 t _write_label_features
                 U dyld_stub_binder
